(iopenshot.classes.project
project
p1
(dp2
S'USER_DIR'
p3
S'/home/mospina/.openshot'
p4
sS'IMAGE_DIR'
p5
S'/usr/lib/python2.7/site-packages/openshot/images'
p6
sS'theme_settings'
p7
NsS'THEMES_DIR'
p8
S'/usr/lib/python2.7/site-packages/openshot/themes'
p9
sS'TRANSITIONS_DIR'
p10
S'/usr/lib/python2.7/site-packages/openshot/transitions'
p11
sS'mlt_profile'
p12
NsS'is_modified'
p13
I01
sS'DESKTOP'
p14
S'/home/mospina/Desktop'
p15
sS'LOCALE_DIR'
p16
S'/usr/lib/python2.7/site-packages/openshot/locale'
p17
sS'tabs'
p18
(lp19
(iclasses.sequences
sequence
p20
(dp21
S'enable_animated_playhead'
p22
I01
sS'scale'
p23
I1
sS'name'
p24
S'Default Sequence 1'
p25
sS'play_head'
p26
NsS'drag_y'
p27
F26.5
sS'play_head_position'
p28
F72.105366666666669
sS'tick_pixels'
p29
I100
sS'tracks'
p30
(lp31
(iclasses.track
track
p32
(dp33
S'clips'
p34
(lp35
sS'name'
p36
S'Track 3'
p37
sS'parent'
p38
g20
sS'play_audio'
p39
I01
sS'y_top'
p40
I6
sS'play_video'
p41
I01
sS'y_bottom'
p42
I65
sS'x'
I10
sS'transitions'
p43
(lp44
sS'unique_id'
p45
S'c439987a-65e1-11e2-a5e4-f0def14af2c8'
p46
sba(iclasses.track
track
p47
(dp48
g34
(lp49
(iclasses.clip
clip
p50
(dp51
S'color'
p52
S'Gold'
p53
sS'moved'
p54
I01
sS'video_fade_out'
p55
I00
sS'keyframes'
p56
(dp57
S'start'
p58
(iclasses.keyframe
keyframe
p59
(dp60
S'frame'
p61
I0
sS'height'
p62
F100
sS'width'
p63
F100
sS'x'
F0
sS'y'
F0
sS'alpha'
p64
F1
sg45
S'23a516cc-5fb1-11e2-8e6d-f0def14af2c8'
p65
sbsS'end'
p66
(iclasses.keyframe
keyframe
p67
(dp68
g61
I-1
sg62
F100
sg63
F100
sS'x'
F0
sS'y'
F0
sg64
F1
sg45
S'23a51ffa-5fb1-11e2-8e6d-f0def14af2c8'
p69
sbssS'video_fade_out_amount'
p70
F2
sS'audio_fade_out'
p71
I00
sS'reversed'
p72
I00
sS'speed'
p73
F1
sS'fill'
p74
I01
sS'audio_fade_in_amount'
p75
F2
sS'position_on_track'
p76
F0
sS'drag_y'
p77
F39.5
sS'drag_x'
p78
F66.5
sS'play_audio'
p79
I01
sS'original_clip_out'
p80
F0.66500000000000004
sS'audio_fade_out_amount'
p81
F2
sS'max_length'
p82
F300
sS'valign'
p83
S'centre'
p84
sS'video_fade_in'
p85
I00
sS'original_length'
p86
F0.66500000000000004
sS'audio_fade_in'
p87
I00
sS'request_show_properties'
p88
I00
sS'video_fade_in_amount'
p89
F2
sS'parent'
p90
g47
sS'composite'
p91
I01
sS'start_time'
p92
F0
sS'file_object'
p93
(iclasses.files
OpenShotFile
p94
(dp95
S'max_frames'
p96
F14999
sS'audio_codec'
p97
S''
sS'audio_channels'
p98
I0
sS'thumb_location'
p99
S'/home/mospina/thumbnail/0d828c80-5fb1-11e2-8e6d-f0def14af2c8_png_1.png'
p100
sg36
S'/home/mospina/manuel/studio/plaga/capitulo_01/storyboard/010.png'
p101
sg38
NsS'file_type'
p102
S'image'
p103
sS'audio_frequency'
p104
I0
sg62
I720
sS'project'
p105
g1
sg63
I1280
sS'length'
p106
F300
sS'fps'
p107
F29.970029970029969
sS'ttl'
p108
I1
sS'video_codec'
p109
S''
sS'videorate'
p110
(F29.970029970029969
I0
tp111
sS'label'
p112
S''
sg45
S'0d99ad0c-5fb1-11e2-8e6d-f0def14af2c8'
p113
sbsS'distort'
p114
I00
sS'volume'
p115
F100
sS'effects'
p116
(lp117
sS'original_clip_in'
p118
F0
sS'rotation'
p119
F0
sS'is_timeline_scrolling'
p120
I00
sS'thumb_location'
p121
S'/home/mospina/thumbnail/0d828c80-5fb1-11e2-8e6d-f0def14af2c8_png_1.png'
p122
sg24
S'010.png'
p123
sS'original_start_pos'
p124
F0
sS'timeline_current_position'
p125
I4946
sS'halign'
p126
S'centre'
p127
sS'play_video'
p128
I01
sS'end_time'
p129
F1.2250000000000001
sS'unique_id'
p130
S'23a500ce-5fb1-11e2-8e6d-f0def14af2c8'
p131
sba(iclasses.clip
clip
p132
(dp133
g52
g53
sg54
I01
sg55
I00
sg56
(dp134
g58
(iclasses.keyframe
keyframe
p135
(dp136
g61
I0
sg62
F100
sg63
F100
sS'x'
F0
sS'y'
F0
sg64
F1
sg45
S'8c39bda0-5fb1-11e2-8e6d-f0def14af2c8'
p137
sbsg66
(iclasses.keyframe
keyframe
p138
(dp139
g61
I-1
sg62
F100
sg63
F100
sS'x'
F0
sS'y'
F0
sg64
F1
sg45
S'8c39c53e-5fb1-11e2-8e6d-f0def14af2c8'
p140
sbssg70
F2
sg71
I00
sg72
I00
sg73
F1
sg74
I01
sg75
F2
sg76
F1.2250000000000001
sg77
F32.5
sg78
F229.5
sg79
I01
sg80
F1.0734999999999999
sg81
F2
sg82
F300
sS'show_preview'
p141
I00
sg83
S'centre'
p142
sg85
I00
sg86
F1.0734999999999999
sg87
I00
sg88
I00
sg89
F2
sg90
g47
sg91
I01
sg92
F0
sg93
(iclasses.files
OpenShotFile
p143
(dp144
g96
F14999
sg97
S''
sg98
I0
sg99
S'/home/mospina/thumbnail/7facf494-5fb1-11e2-8e6d-f0def14af2c8_png_1.png'
p145
sg36
S'/home/mospina/manuel/studio/plaga/capitulo_01/storyboard/011.png'
p146
sg38
Nsg102
g103
sg104
I0
sg62
I720
sg105
g1
sg63
I1280
sg106
F300
sg107
F29.970029970029969
sg108
I1
sg109
S''
sg110
(F29.970029970029969
I0
tp147
sg112
S''
sg45
S'7fb3d4da-5fb1-11e2-8e6d-f0def14af2c8'
p148
sbsg114
I00
sg115
F100
sg116
(lp149
sg118
F0
sg119
F0
sg120
I00
sg121
S'/home/mospina/thumbnail/7facf494-5fb1-11e2-8e6d-f0def14af2c8_png_1.png'
p150
sg24
S'011.png'
p151
sg124
F1.2250000000000001
sg125
I5668
sg126
S'centre'
p152
sg128
I01
sg129
F1.2399999999999998
sg130
S'8c39b350-5fb1-11e2-8e6d-f0def14af2c8'
p153
sba(iclasses.clip
clip
p154
(dp155
g52
g53
sg54
I00
sg55
I00
sg56
(dp156
g58
(iclasses.keyframe
keyframe
p157
(dp158
g61
I0
sg62
F100
sg63
F100
sS'x'
F0
sS'y'
F0
sg64
F1
sg45
S'b1c59fe4-5fb1-11e2-8e6d-f0def14af2c8'
p159
sbsg66
(iclasses.keyframe
keyframe
p160
(dp161
g61
I-1
sg62
F100
sg63
F100
sS'x'
F0
sS'y'
F0
sg64
F1
sg45
S'b1c5a8b8-5fb1-11e2-8e6d-f0def14af2c8'
p162
sbssg70
F2
sg71
I00
sg72
I00
sg73
F1
sg74
I01
sg75
F2
sg76
F2.4649999999999999
sg77
F31.5
sg78
F181.5
sg79
I01
sg80
F7
sg81
F2
sg82
F300
sg141
I00
sg83
S'centre'
p163
sg85
I00
sg86
F6.4249999999999998
sg87
I00
sg88
I00
sg89
F2
sg90
g47
sg91
I01
sg92
F0.57500000000000018
sg93
(iclasses.files
OpenShotFile
p164
(dp165
g96
F14999
sg97
S''
sg98
I0
sg99
S'/home/mospina/thumbnail/7c194f62-5fb1-11e2-8e6d-f0def14af2c8_png_1.png'
p166
sg36
S'/home/mospina/manuel/studio/plaga/capitulo_01/storyboard/012.png'
p167
sg38
Nsg102
g103
sg104
I0
sg62
I720
sg105
g1
sg63
I1280
sg106
F300
sg107
F29.970029970029969
sg108
I1
sg109
S''
sg110
(F29.970029970029969
I0
tp168
sg112
S''
sg45
S'7c226b2e-5fb1-11e2-8e6d-f0def14af2c8'
p169
sbsg114
I00
sg115
F100
sg116
(lp170
sg118
F0.57500000000000018
sg119
F0
sg120
I00
sg121
S'/home/mospina/thumbnail/7c194f62-5fb1-11e2-8e6d-f0def14af2c8_png_1.png'
p171
sg24
S'012.png'
p172
sg124
F0.80500000000000005
sg125
I2094
sg126
g163
sg128
I01
sg129
F1.9750000000000001
sg130
S'b1c59594-5fb1-11e2-8e6d-f0def14af2c8'
p173
sba(iclasses.clip
clip
p174
(dp175
g52
g53
sg54
I01
sg55
I00
sg56
(dp176
g58
(iclasses.keyframe
keyframe
p177
(dp178
g61
I0
sg62
F100
sg63
F100
sS'x'
F0
sS'y'
F0
sg64
F1
sg45
S'bb21eca0-5fb1-11e2-8e6d-f0def14af2c8'
p179
sbsg66
(iclasses.keyframe
keyframe
p180
(dp181
g61
I-1
sg62
F100
sg63
F100
sS'x'
F0
sS'y'
F0
sg64
F1
sg45
S'bb21efe8-5fb1-11e2-8e6d-f0def14af2c8'
p182
sbssg70
F2
sg71
I00
sg72
I00
sg73
F1
sg74
I01
sg75
F2
sg76
F3.8650000000000002
sg77
F39.5
sg78
F798.55985915492943
sg79
I01
sg80
F7
sg81
F2
sg82
F300
sg141
I00
sg83
g163
sg85
I00
sg86
F7
sg87
I00
sg88
I00
sg89
F2
sg90
g47
sg91
I01
sg92
F0
sg93
(iclasses.files
OpenShotFile
p183
(dp184
g96
F14999
sg97
S''
sg98
I0
sg99
S'/home/mospina/thumbnail/7c2360e2-5fb1-11e2-8e6d-f0def14af2c8_png_1.png'
p185
sg36
S'/home/mospina/manuel/studio/plaga/capitulo_01/storyboard/013.png'
p186
sg38
Nsg102
g103
sg104
I0
sg62
I720
sg105
g1
sg63
I1280
sg106
F300
sg107
F29.970029970029969
sg108
I1
sg109
S''
sg110
(F29.970029970029969
I0
tp187
sg112
S''
sg45
S'7c2b83bc-5fb1-11e2-8e6d-f0def14af2c8'
p188
sbsg114
I00
sg115
F100
sg116
(lp189
sg118
F0
sg119
F0
sg120
I00
sg121
S'/home/mospina/thumbnail/7c2360e2-5fb1-11e2-8e6d-f0def14af2c8_png_1.png'
p190
sg24
S'013.png'
p191
sg124
F7.5
sg125
I2198
sg126
g163
sg128
I01
sg129
F1.4450000000000001
sg130
S'bb21e656-5fb1-11e2-8e6d-f0def14af2c8'
p192
sba(iclasses.clip
clip
p193
(dp194
g52
g53
sg54
I01
sg55
I00
sg56
(dp195
g58
(iclasses.keyframe
keyframe
p196
(dp197
g61
I0
sg62
F100
sg63
F100
sS'x'
F0
sS'y'
F0
sg64
F1
sg45
S'ea86b3ae-5fb1-11e2-8e6d-f0def14af2c8'
p198
sbsg66
(iclasses.keyframe
keyframe
p199
(dp200
g61
I-1
sg62
F100
sg63
F100
sS'x'
F0
sS'y'
F0
sg64
F1
sg45
S'ea86bea8-5fb1-11e2-8e6d-f0def14af2c8'
p201
sbssg70
F2
sg71
I00
sg72
I00
sg73
F1
sg74
I01
sg75
F2
sg76
F5.3099999999999996
sg77
F38.5
sg78
F1160.5598591549294
sg79
I01
sg80
F7
sg81
F2
sg82
F300
sg141
I00
sg83
g163
sg85
I00
sg86
F4.8650000000000002
sg87
I00
sg88
I00
sg89
F2
sg90
g47
sg91
I01
sg92
F2.1349999999999998
sg93
(iclasses.files
OpenShotFile
p202
(dp203
g96
F14999
sg97
S''
sg98
I0
sg99
S'/home/mospina/thumbnail/7c2ca56c-5fb1-11e2-8e6d-f0def14af2c8_png_1.png'
p204
sg36
S'/home/mospina/manuel/studio/plaga/capitulo_01/storyboard/014.png'
p205
sg38
Nsg102
g103
sg104
I0
sg62
I720
sg105
g1
sg63
I1280
sg106
F300
sg107
F29.970029970029969
sg108
I1
sg109
S''
sg110
(F29.970029970029969
I0
tp206
sg112
S''
sg45
S'7c34c8dc-5fb1-11e2-8e6d-f0def14af2c8'
p207
sbsg114
I00
sg115
F100
sg116
(lp208
sg118
F2.1349999999999998
sg119
F0
sg120
I00
sg121
S'/home/mospina/thumbnail/7c2ca56c-5fb1-11e2-8e6d-f0def14af2c8_png_1.png'
p209
sg24
S'014.png'
p210
sg124
F11.335000000000001
sg125
I3111
sg126
g163
sg128
I01
sg129
F3.3849999999999998
sg130
S'ea86a814-5fb1-11e2-8e6d-f0def14af2c8'
p211
sba(iclasses.clip
clip
p212
(dp213
g52
g53
sg54
I01
sg55
I00
sg56
(dp214
g58
(iclasses.keyframe
keyframe
p215
(dp216
g61
I0
sg62
F100
sg63
F100
sS'x'
F0
sS'y'
F0
sg64
F1
sg45
S'fb743d26-5fb1-11e2-8e6d-f0def14af2c8'
p217
sbsg66
(iclasses.keyframe
keyframe
p218
(dp219
g61
I-1
sg62
F100
sg63
F100
sS'x'
F0
sS'y'
F0
sg64
F1
sg45
S'fb744636-5fb1-11e2-8e6d-f0def14af2c8'
p220
sbssg70
F2
sg71
I00
sg72
I00
sg73
F1
sg74
I01
sg75
F2
sg76
F6.5599999999999996
sg77
F35.5
sg78
F1317.5
sg79
I01
sg80
F7
sg81
F2
sg82
F300
sg141
I00
sg83
g163
sg85
I00
sg86
F7
sg87
I00
sg88
I00
sg89
F2
sg90
g47
sg91
I01
sg92
F0
sg93
(iclasses.files
OpenShotFile
p221
(dp222
g96
F14999
sg97
S''
sg98
I0
sg99
S'/home/mospina/thumbnail/7c35a5c2-5fb1-11e2-8e6d-f0def14af2c8_png_1.png'
p223
sg36
S'/home/mospina/manuel/studio/plaga/capitulo_01/storyboard/015.png'
p224
sg38
Nsg102
g103
sg104
I0
sg62
I720
sg105
g1
sg63
I1280
sg106
F300
sg107
F29.970029970029969
sg108
I1
sg109
S''
sg110
(F29.970029970029969
I0
tp225
sg112
S''
sg45
S'7c3da60a-5fb1-11e2-8e6d-f0def14af2c8'
p226
sbsg114
I00
sg115
F100
sg116
(lp227
sg118
F0
sg119
F0
sg120
I00
sg121
S'/home/mospina/thumbnail/7c35a5c2-5fb1-11e2-8e6d-f0def14af2c8_png_1.png'
p228
sg24
S'015.png'
p229
sg124
F12.844401408450706
sg125
I3480
sg126
g163
sg128
I01
sg129
F1.2305985915492943
sg130
S'fb7432d6-5fb1-11e2-8e6d-f0def14af2c8'
p230
sba(iclasses.clip
clip
p231
(dp232
g52
g53
sg54
I01
sg55
I00
sg56
(dp233
g58
(iclasses.keyframe
keyframe
p234
(dp235
g61
I0
sg62
F100
sg63
F100
sS'x'
F0
sS'y'
F0
sg64
F1
sg45
S'c55019e0-606f-11e2-8e6d-f0def14af2c8'
p236
sbsg66
(iclasses.keyframe
keyframe
p237
(dp238
g61
I-1
sg62
F100
sg63
F100
sS'x'
F0
sS'y'
F0
sg64
F1
sg45
S'c5502624-606f-11e2-8e6d-f0def14af2c8'
p239
sbssg70
F2
sg71
I00
sg72
I00
sg73
F1
sg74
I01
sg75
F2
sg76
F7.7905985915492941
sg77
F39.5
sg78
F902.44014084507057
sg79
I01
sg80
F7
sg81
F2
sg82
F300
sg83
g163
sg85
I00
sg86
F7
sg87
I00
sg88
I00
sg89
F2
sg90
g47
sg91
I01
sg92
F0
sg93
(iclasses.files
OpenShotFile
p240
(dp241
g96
F14999
sg97
S''
sg98
I0
sg99
S'/home/mospina/thumbnail/7c3eb586-5fb1-11e2-8e6d-f0def14af2c8_png_1.png'
p242
sg36
S'/home/mospina/manuel/studio/plaga/capitulo_01/storyboard/020.png'
p243
sg38
Nsg102
g103
sg104
I0
sg62
I720
sg105
g1
sg63
I1280
sg106
F300
sg107
F29.970029970029969
sg108
I1
sg109
S''
sg110
(F29.970029970029969
I0
tp244
sg112
S''
sg45
S'7c46dd9c-5fb1-11e2-8e6d-f0def14af2c8'
p245
sbsg114
I00
sg115
F100
sg116
(lp246
sg118
F0
sg119
F0
sg120
I00
sg121
S'/home/mospina/thumbnail/7c3eb586-5fb1-11e2-8e6d-f0def14af2c8_png_1.png'
p247
sg24
S'020.png'
p248
sg124
F7.7905985915492941
sg125
I0
sg126
g163
sg128
I01
sg129
F1.2244014084507058
sg130
S'c5500b58-606f-11e2-8e6d-f0def14af2c8'
p249
sba(iclasses.clip
clip
p250
(dp251
g52
g53
sg54
I01
sg55
I00
sg56
(dp252
g58
(iclasses.keyframe
keyframe
p253
(dp254
g61
I0
sg62
F100
sg63
F100
sS'x'
F0
sS'y'
F0
sg64
F1
sg45
S'cbd116e8-606f-11e2-8e6d-f0def14af2c8'
p255
sbsg66
(iclasses.keyframe
keyframe
p256
(dp257
g61
I-1
sg62
F100
sg63
F100
sS'x'
F0
sS'y'
F0
sg64
F1
sg45
S'cbd11a12-606f-11e2-8e6d-f0def14af2c8'
p258
sbssg70
F2
sg71
I00
sg72
I00
sg73
F1
sg74
I01
sg75
F2
sg76
F9.0150000000000006
sg77
F34.5
sg78
F1525.5
sg79
I01
sg80
F7
sg81
F2
sg82
F300
sg141
I00
sg83
g163
sg85
I00
sg86
F7
sg87
I00
sg88
I00
sg89
F2
sg90
g47
sg91
I01
sg92
F0
sg93
(iclasses.files
OpenShotFile
p259
(dp260
g96
F14999
sg97
S''
sg98
I0
sg99
S'/home/mospina/thumbnail/7c47bba4-5fb1-11e2-8e6d-f0def14af2c8_png_1.png'
p261
sg36
S'/home/mospina/manuel/studio/plaga/capitulo_01/storyboard/021.png'
p262
sg38
Nsg102
g103
sg104
I0
sg62
I720
sg105
g1
sg63
I1280
sg106
F300
sg107
F29.970029970029969
sg108
I1
sg109
S''
sg110
(F29.970029970029969
I0
tp263
sg112
S''
sg45
S'7c4fb2b4-5fb1-11e2-8e6d-f0def14af2c8'
p264
sbsg114
I00
sg115
F100
sg116
(lp265
sg118
F0
sg119
F0
sg120
I00
sg121
S'/home/mospina/thumbnail/7c47bba4-5fb1-11e2-8e6d-f0def14af2c8_png_1.png'
p266
sg24
S'021.png'
p267
sg124
F14.790598591549294
sg125
I0
sg126
g163
sg128
I01
sg129
F1.2244014084507058
sg130
S'cbd111ca-606f-11e2-8e6d-f0def14af2c8'
p268
sba(iclasses.clip
clip
p269
(dp270
g52
g53
sg54
I01
sg55
I00
sg56
(dp271
g58
(iclasses.keyframe
keyframe
p272
(dp273
g61
I0
sg62
F100
sg63
F100
sS'x'
F0
sS'y'
F0
sg64
F1
sg45
S'e0faaef8-606f-11e2-8e6d-f0def14af2c8'
p274
sbsg66
(iclasses.keyframe
keyframe
p275
(dp276
g61
I-1
sg62
F100
sg63
F100
sS'x'
F0
sS'y'
F0
sg64
F1
sg45
S'e0fab7ae-606f-11e2-8e6d-f0def14af2c8'
p277
sbssg70
F2
sg71
I00
sg72
I00
sg73
F1
sg74
I01
sg75
F2
sg76
F10.239401408450705
sg77
F29.5
sg78
F1123.5
sg79
I01
sg80
F7
sg81
F2
sg82
F300
sg141
I00
sg83
g163
sg85
I00
sg86
F7
sg87
I00
sg88
I00
sg89
F2
sg90
g47
sg91
I01
sg92
F0
sg93
(iclasses.files
OpenShotFile
p278
(dp279
g96
F14999
sg97
S''
sg98
I0
sg99
S'/home/mospina/thumbnail/7c510452-5fb1-11e2-8e6d-f0def14af2c8_png_1.png'
p280
sg36
S'/home/mospina/manuel/studio/plaga/capitulo_01/storyboard/022.png'
p281
sg38
Nsg102
g103
sg104
I0
sg62
I720
sg105
g1
sg63
I1280
sg106
F300
sg107
F29.970029970029969
sg108
I1
sg109
S''
sg110
(F29.970029970029969
I0
tp282
sg112
S''
sg45
S'7c585770-5fb1-11e2-8e6d-f0def14af2c8'
p283
sbsg114
I00
sg115
F100
sg116
(lp284
sg118
F0
sg119
F0
sg120
I00
sg121
S'/home/mospina/thumbnail/7c510452-5fb1-11e2-8e6d-f0def14af2c8_png_1.png'
p285
sg24
S'022.png'
p286
sg124
F10.563908450704226
sg125
I0
sg126
g163
sg128
I01
sg129
F1.2210915492957748
sg130
S'e0fa9fb2-606f-11e2-8e6d-f0def14af2c8'
p287
sba(iclasses.clip
clip
p288
(dp289
g52
g53
sg54
I00
sg55
I00
sg56
(dp290
g58
(iclasses.keyframe
keyframe
p291
(dp292
g61
I0
sg62
F100
sg63
F100
sS'x'
F0
sS'y'
F0
sg64
F1
sg45
S'e496c1dc-606f-11e2-8e6d-f0def14af2c8'
p293
sbsg66
(iclasses.keyframe
keyframe
p294
(dp295
g61
I-1
sg62
F100
sg63
F100
sS'x'
F0
sS'y'
F0
sg64
F1
sg45
S'e496c9a2-606f-11e2-8e6d-f0def14af2c8'
p296
sbssg70
F2
sg71
I00
sg72
I00
sg73
F1
sg74
I01
sg75
F2
sg76
F11.46049295774648
sg77
F38.5
sg78
F1861.8415492957745
sg79
I01
sg80
F7
sg81
F2
sg82
F300
sg141
I00
sg83
g163
sg85
I00
sg86
F7
sg87
I00
sg88
I00
sg89
F2
sg90
g47
sg91
I01
sg92
F0
sg93
(iclasses.files
OpenShotFile
p297
(dp298
g96
F14999
sg97
S''
sg98
I0
sg99
S'/home/mospina/thumbnail/7c59a5c6-5fb1-11e2-8e6d-f0def14af2c8_png_1.png'
p299
sg36
S'/home/mospina/manuel/studio/plaga/capitulo_01/storyboard/023.png'
p300
sg38
Nsg102
g103
sg104
I0
sg62
I720
sg105
g1
sg63
I1280
sg106
F300
sg107
F29.970029970029969
sg108
I1
sg109
S''
sg110
(F29.970029970029969
I0
tp301
sg112
S''
sg45
S'7c602a9a-5fb1-11e2-8e6d-f0def14af2c8'
p302
sbsg114
I00
sg115
F100
sg116
(lp303
sg118
F0
sg119
F0
sg120
I00
sg121
S'/home/mospina/thumbnail/7c59a5c6-5fb1-11e2-8e6d-f0def14af2c8_png_1.png'
p304
sg24
S'023.png'
p305
sg124
F17.813908450704226
sg125
I0
sg126
g163
sg128
I01
sg129
F1.2310915492957748
sg130
S'e496b660-606f-11e2-8e6d-f0def14af2c8'
p306
sba(iclasses.clip
clip
p307
(dp308
g52
g53
sg54
I01
sg55
I00
sg56
(dp309
g58
(iclasses.keyframe
keyframe
p310
(dp311
g61
I0
sg62
F100
sg63
F100
sS'x'
F0
sS'y'
F0
sg64
F1
sg45
S'fc909c36-606f-11e2-8e6d-f0def14af2c8'
p312
sbsg66
(iclasses.keyframe
keyframe
p313
(dp314
g61
I-1
sg62
F100
sg63
F100
sS'x'
F0
sS'y'
F0
sg64
F1
sg45
S'fc90a51e-606f-11e2-8e6d-f0def14af2c8'
p315
sbssg70
F2
sg71
I00
sg72
I00
sg73
F1
sg74
I01
sg75
F2
sg76
F12.691584507042256
sg77
F37.5
sg78
F1503.3415492957743
sg79
I01
sg80
F7
sg81
F2
sg82
F300
sg83
g163
sg85
I00
sg86
F7
sg87
I00
sg88
I00
sg89
F2
sg90
g47
sg91
I01
sg92
F0
sg93
(iclasses.files
OpenShotFile
p316
(dp317
g96
F14999
sg97
S''
sg98
I0
sg99
S'/home/mospina/thumbnail/7c6172ba-5fb1-11e2-8e6d-f0def14af2c8_png_1.png'
p318
sg36
S'/home/mospina/manuel/studio/plaga/capitulo_01/storyboard/024.png'
p319
sg38
Nsg102
g103
sg104
I0
sg62
I720
sg105
g1
sg63
I1280
sg106
F300
sg107
F29.970029970029969
sg108
I1
sg109
S''
sg110
(F29.970029970029969
I0
tp320
sg112
S''
sg45
S'7c67eda2-5fb1-11e2-8e6d-f0def14af2c8'
p321
sbsg114
I00
sg115
F100
sg116
(lp322
sg118
F0
sg119
F0
sg120
I00
sg121
S'/home/mospina/thumbnail/7c6172ba-5fb1-11e2-8e6d-f0def14af2c8_png_1.png'
p323
sg24
S'024.png'
p324
sg124
F12.691584507042256
sg125
I0
sg126
g163
sg128
I01
sg129
F1.2234154929577448
sg130
S'fc908da4-606f-11e2-8e6d-f0def14af2c8'
p325
sba(iclasses.clip
clip
p326
(dp327
g52
g53
sg54
I01
sg55
I00
sg56
(dp328
g58
(iclasses.keyframe
keyframe
p329
(dp330
g61
I0
sg62
F100
sg63
F100
sS'x'
F0
sS'y'
F0
sg64
F1
sg45
S'023d1eac-6070-11e2-8e6d-f0def14af2c8'
p331
sbsg66
(iclasses.keyframe
keyframe
p332
(dp333
g61
I-1
sg62
F100
sg63
F100
sS'x'
F0
sS'y'
F0
sg64
F1
sg45
S'023d2654-6070-11e2-8e6d-f0def14af2c8'
p334
sbssg70
F2
sg71
I00
sg72
I00
sg73
F1
sg74
I01
sg75
F2
sg76
F13.914999999999999
sg77
F35.5
sg78
F2020.5
sg79
I01
sg80
F7
sg81
F2
sg82
F300
sg141
I00
sg83
g163
sg85
I00
sg86
F7
sg87
I00
sg88
I00
sg89
F2
sg90
g47
sg91
I01
sg92
F0
sg93
(iclasses.files
OpenShotFile
p335
(dp336
g96
F14999
sg97
S''
sg98
I0
sg99
S'/home/mospina/thumbnail/7c693d74-5fb1-11e2-8e6d-f0def14af2c8_png_1.png'
p337
sg36
S'/home/mospina/manuel/studio/plaga/capitulo_01/storyboard/025.png'
p338
sg38
Nsg102
g103
sg104
I0
sg62
I720
sg105
g1
sg63
I1280
sg106
F300
sg107
F29.970029970029969
sg108
I1
sg109
S''
sg110
(F29.970029970029969
I0
tp339
sg112
S''
sg45
S'7c6fabf0-5fb1-11e2-8e6d-f0def14af2c8'
p340
sbsg114
I00
sg115
F100
sg116
(lp341
sg118
F0
sg119
F0
sg120
I00
sg121
S'/home/mospina/thumbnail/7c693d74-5fb1-11e2-8e6d-f0def14af2c8_png_1.png'
p342
sg24
S'025.png'
p343
sg124
F19.691584507042254
sg125
I0
sg126
g163
sg128
I01
sg129
F1.2434154929577448
sg130
S'023d1420-6070-11e2-8e6d-f0def14af2c8'
p344
sba(iclasses.clip
clip
p345
(dp346
g52
g53
sg54
I01
sg55
I00
sg56
(dp347
g58
(iclasses.keyframe
keyframe
p348
(dp349
g61
I0
sg62
F100
sg63
F100
sS'x'
F0
sS'y'
F0
sg64
F1
sg45
S'045650a0-6070-11e2-8e6d-f0def14af2c8'
p350
sbsg66
(iclasses.keyframe
keyframe
p351
(dp352
g61
I-1
sg62
F100
sg63
F100
sS'x'
F0
sS'y'
F0
sg64
F1
sg45
S'04568232-6070-11e2-8e6d-f0def14af2c8'
p353
sbssg70
F2
sg71
I00
sg72
I00
sg73
F1
sg74
I01
sg75
F2
sg76
F15.158415492957745
sg77
F33.5
sg78
F2710.5
sg79
I01
sg80
F7
sg81
F2
sg82
F300
sg141
I00
sg83
g163
sg85
I00
sg86
F7
sg87
I00
sg88
I00
sg89
F2
sg90
g47
sg91
I01
sg92
F0
sg93
(iclasses.files
OpenShotFile
p354
(dp355
g96
F14999
sg97
S''
sg98
I0
sg99
S'/home/mospina/thumbnail/7c70edc6-5fb1-11e2-8e6d-f0def14af2c8_png_1.png'
p356
sg36
S'/home/mospina/manuel/studio/plaga/capitulo_01/storyboard/026.png'
p357
sg38
Nsg102
g103
sg104
I0
sg62
I720
sg105
g1
sg63
I1280
sg106
F300
sg107
F29.970029970029969
sg108
I1
sg109
S''
sg110
(F29.970029970029969
I0
tp358
sg112
S''
sg45
S'7c7776e6-5fb1-11e2-8e6d-f0def14af2c8'
p359
sbsg114
I00
sg115
F100
sg116
(lp360
sg118
F0
sg119
F0
sg120
I00
sg121
S'/home/mospina/thumbnail/7c70edc6-5fb1-11e2-8e6d-f0def14af2c8_png_1.png'
p361
sg24
S'026.png'
p362
sg124
F26.691584507042254
sg125
I0
sg126
g163
sg128
I01
sg129
F1.2434154929577472
sg130
S'045643ee-6070-11e2-8e6d-f0def14af2c8'
p363
sba(iclasses.clip
clip
p364
(dp365
g52
g53
sg54
I01
sg55
I00
sg56
(dp366
g58
(iclasses.keyframe
keyframe
p367
(dp368
g61
I0
sg62
F100
sg63
F100
sS'x'
F0
sS'y'
F0
sg64
F1
sg45
S'40f2cc58-6072-11e2-8e6d-f0def14af2c8'
p369
sbsg66
(iclasses.keyframe
keyframe
p370
(dp371
g61
I-1
sg62
F100
sg63
F100
sS'x'
F0
sS'y'
F0
sg64
F1
sg45
S'40f2d3ec-6072-11e2-8e6d-f0def14af2c8'
p372
sbssg70
F2
sg71
I00
sg72
I00
sg73
F1
sg74
I01
sg75
F2
sg76
F16.401830985915492
sg77
F46.5
sg78
F1067.3169014084508
sg79
I01
sg80
F7
sg81
F2
sg82
F300
sg83
g163
sg85
I00
sg86
F7
sg87
I00
sg88
I00
sg89
F2
sg90
g47
sg91
I01
sg92
F0
sg93
(iclasses.files
OpenShotFile
p373
(dp374
g96
F14999
sg97
S''
sg98
I0
sg99
S'/home/mospina/thumbnail/7c788e50-5fb1-11e2-8e6d-f0def14af2c8_png_1.png'
p375
sg36
S'/home/mospina/manuel/studio/plaga/capitulo_01/storyboard/030.png'
p376
sg38
Nsg102
g103
sg104
I0
sg62
I720
sg105
g1
sg63
I1280
sg106
F300
sg107
F29.970029970029969
sg108
I1
sg109
S''
sg110
(F29.970029970029969
I0
tp377
sg112
S''
sg45
S'7c809870-5fb1-11e2-8e6d-f0def14af2c8'
p378
sbsg114
I00
sg115
F100
sg116
(lp379
sg118
F0
sg119
F0
sg120
I00
sg121
S'/home/mospina/thumbnail/7c788e50-5fb1-11e2-8e6d-f0def14af2c8_png_1.png'
p380
sg24
S'030.png'
p381
sg124
F16.401830985915492
sg125
I494
sg126
g163
sg128
I01
sg129
F1.233169014084508
sg130
S'40f2c168-6072-11e2-8e6d-f0def14af2c8'
p382
sba(iclasses.clip
clip
p383
(dp384
g52
g53
sg54
I01
sg55
I00
sg56
(dp385
g58
(iclasses.keyframe
keyframe
p386
(dp387
g61
I0
sg62
F100
sg63
F100
sS'x'
F0
sS'y'
F0
sg64
F1
sg45
S'440f0e6a-6072-11e2-8e6d-f0def14af2c8'
p388
sbsg66
(iclasses.keyframe
keyframe
p389
(dp390
g61
I-1
sg62
F100
sg63
F100
sS'x'
F0
sS'y'
F0
sg64
F1
sg45
S'440f16ee-6072-11e2-8e6d-f0def14af2c8'
p391
sbssg70
F2
sg71
I00
sg72
I00
sg73
F1
sg74
I01
sg75
F2
sg76
F17.635000000000002
sg77
F19.5
sg78
F2465.5
sg79
I01
sg80
F7
sg81
F2
sg82
F300
sg141
I00
sg83
g163
sg85
I00
sg86
F7
sg87
I00
sg88
I00
sg89
F2
sg90
g47
sg91
I01
sg92
F0
sg93
(iclasses.files
OpenShotFile
p392
(dp393
g96
F14999
sg97
S''
sg98
I0
sg99
S'/home/mospina/thumbnail/7c81cccc-5fb1-11e2-8e6d-f0def14af2c8_png_1.png'
p394
sg36
S'/home/mospina/manuel/studio/plaga/capitulo_01/storyboard/031.png'
p395
sg38
Nsg102
g103
sg104
I0
sg62
I720
sg105
g1
sg63
I1280
sg106
F300
sg107
F29.970029970029969
sg108
I1
sg109
S''
sg110
(F29.970029970029969
I0
tp396
sg112
S''
sg45
S'7c88df08-5fb1-11e2-8e6d-f0def14af2c8'
p397
sbsg114
I00
sg115
F100
sg116
(lp398
sg118
F0
sg119
F0
sg120
I00
sg121
S'/home/mospina/thumbnail/7c81cccc-5fb1-11e2-8e6d-f0def14af2c8_png_1.png'
p399
sg24
S'031.png'
p400
sg124
F23.684718309859154
sg125
I494
sg126
g163
sg128
I01
sg129
F1.220281690140846
sg130
S'440f04ba-6072-11e2-8e6d-f0def14af2c8'
p401
sba(iclasses.clip
clip
p402
(dp403
g52
g53
sg54
I01
sg55
I00
sg56
(dp404
g58
(iclasses.keyframe
keyframe
p405
(dp406
g61
I0
sg62
F100
sg63
F100
sS'x'
F0
sS'y'
F0
sg64
F1
sg45
S'475bdaa8-6072-11e2-8e6d-f0def14af2c8'
p407
sbsg66
(iclasses.keyframe
keyframe
p408
(dp409
g61
I-1
sg62
F100
sg63
F100
sS'x'
F0
sS'y'
F0
sg64
F1
sg45
S'475bebce-6072-11e2-8e6d-f0def14af2c8'
p410
sbssg70
F2
sg71
I00
sg72
I00
sg73
F1
sg74
I01
sg75
F2
sg76
F18.855281690140849
sg77
F29.5
sg78
F3142.5
sg79
I01
sg80
F7
sg81
F2
sg82
F300
sg141
I00
sg83
g163
sg85
I00
sg86
F7
sg87
I00
sg88
I00
sg89
F2
sg90
g47
sg91
I01
sg92
F0
sg93
(iclasses.files
OpenShotFile
p411
(dp412
g96
F14999
sg97
S''
sg98
I0
sg99
S'/home/mospina/thumbnail/7c8a4758-5fb1-11e2-8e6d-f0def14af2c8_png_1.png'
p413
sg36
S'/home/mospina/manuel/studio/plaga/capitulo_01/storyboard/032.png'
p414
sg38
Nsg102
g103
sg104
I0
sg62
I720
sg105
g1
sg63
I1280
sg106
F300
sg107
F29.970029970029969
sg108
I1
sg109
S''
sg110
(F29.970029970029969
I0
tp415
sg112
S''
sg45
S'7c91e99a-5fb1-11e2-8e6d-f0def14af2c8'
p416
sbsg114
I00
sg115
F100
sg116
(lp417
sg118
F0
sg119
F0
sg120
I00
sg121
S'/home/mospina/thumbnail/7c8a4758-5fb1-11e2-8e6d-f0def14af2c8_png_1.png'
p418
sg24
S'032.png'
p419
sg124
F30.89468309859155
sg125
I494
sg126
g163
sg128
I01
sg129
F1.2203169014084505
sg130
S'475bcffe-6072-11e2-8e6d-f0def14af2c8'
p420
sba(iclasses.clip
clip
p421
(dp422
g52
g53
sg54
I01
sg55
I00
sg56
(dp423
g58
(iclasses.keyframe
keyframe
p424
(dp425
g61
I0
sg62
F100
sg63
F100
sS'x'
F0
sS'y'
F0
sg64
F1
sg45
S'491d0538-6072-11e2-8e6d-f0def14af2c8'
p426
sbsg66
(iclasses.keyframe
keyframe
p427
(dp428
g61
I-1
sg62
F100
sg63
F100
sS'x'
F0
sS'y'
F0
sg64
F1
sg45
S'491d0dc6-6072-11e2-8e6d-f0def14af2c8'
p429
sbssg70
F2
sg71
I00
sg72
I00
sg73
F1
sg74
I01
sg75
F2
sg76
F20.075598591549298
sg77
F38.5
sg78
F3852.4084507042253
sg79
I01
sg80
F7
sg81
F2
sg82
F300
sg141
I00
sg83
g163
sg85
I00
sg86
F7
sg87
I00
sg88
I00
sg89
F2
sg90
g47
sg91
I01
sg92
F0
sg93
(iclasses.files
OpenShotFile
p430
(dp431
g96
F14999
sg97
S''
sg98
I0
sg99
S'/home/mospina/thumbnail/7c92da1c-5fb1-11e2-8e6d-f0def14af2c8_png_1.png'
p432
sg36
S'/home/mospina/manuel/studio/plaga/capitulo_01/storyboard/033.png'
p433
sg38
Nsg102
g103
sg104
I0
sg62
I720
sg105
g1
sg63
I1280
sg106
F300
sg107
F29.970029970029969
sg108
I1
sg109
S''
sg110
(F29.970029970029969
I0
tp434
sg112
S''
sg45
S'7c9b7924-5fb1-11e2-8e6d-f0def14af2c8'
p435
sbsg114
I00
sg115
F100
sg116
(lp436
sg118
F0
sg119
F0
sg120
I00
sg121
S'/home/mospina/thumbnail/7c92da1c-5fb1-11e2-8e6d-f0def14af2c8_png_1.png'
p437
sg24
S'033.png'
p438
sg124
F38.204683098591552
sg125
I494
sg126
g163
sg128
I01
sg129
F1.2203169014084461
sg130
S'491cfb24-6072-11e2-8e6d-f0def14af2c8'
p439
sba(iclasses.clip
clip
p440
(dp441
g52
g53
sg54
I01
sg55
I00
sg56
(dp442
g58
(iclasses.keyframe
keyframe
p443
(dp444
g61
I0
sg62
F100
sg63
F100
sS'x'
F0
sS'y'
F0
sg64
F1
sg45
S'6eafcdb2-6072-11e2-8e6d-f0def14af2c8'
p445
sbsg66
(iclasses.keyframe
keyframe
p446
(dp447
g61
I-1
sg62
F100
sg63
F100
sS'x'
F0
sS'y'
F0
sg64
F1
sg45
S'6eafd546-6072-11e2-8e6d-f0def14af2c8'
p448
sbssg70
F2
sg71
I00
sg72
I00
sg73
F1
sg74
I01
sg75
F2
sg76
F21.295915492957747
sg77
F34.5
sg78
F2188.5
sg79
I01
sg80
F7
sg81
F2
sg82
F300
sg141
I00
sg83
g163
sg85
I00
sg86
F7
sg87
I00
sg88
I00
sg89
F2
sg90
g47
sg91
I01
sg92
F0
sg93
(iclasses.files
OpenShotFile
p449
(dp450
g96
F14999
sg97
S''
sg98
I0
sg99
S'/home/mospina/thumbnail/7c9c6942-5fb1-11e2-8e6d-f0def14af2c8_png_1.png'
p451
sg36
S'/home/mospina/manuel/studio/plaga/capitulo_01/storyboard/034.png'
p452
sg38
Nsg102
g103
sg104
I0
sg62
I720
sg105
g1
sg63
I1280
sg106
F300
sg107
F29.970029970029969
sg108
I1
sg109
S''
sg110
(F29.970029970029969
I0
tp453
sg112
S''
sg45
S'7ca4b91c-5fb1-11e2-8e6d-f0def14af2c8'
p454
sbsg114
I00
sg115
F100
sg116
(lp455
sg118
F0
sg119
F0
sg120
I00
sg121
S'/home/mospina/thumbnail/7c9c6942-5fb1-11e2-8e6d-f0def14af2c8_png_1.png'
p456
sg24
S'034.png'
p457
sg124
F21.403732394366198
sg125
I494
sg126
g163
sg128
I01
sg129
F1.2312676056338023
sg130
S'6eafc33a-6072-11e2-8e6d-f0def14af2c8'
p458
sba(iclasses.clip
clip
p459
(dp460
g52
g53
sg54
I01
sg55
I00
sg56
(dp461
g58
(iclasses.keyframe
keyframe
p462
(dp463
g61
I0
sg62
F100
sg63
F100
sS'x'
F0
sS'y'
F0
sg64
F1
sg45
S'75f74456-6072-11e2-8e6d-f0def14af2c8'
p464
sbsg66
(iclasses.keyframe
keyframe
p465
(dp466
g61
I-1
sg62
F100
sg63
F100
sS'x'
F0
sS'y'
F0
sg64
F1
sg45
S'75f74c12-6072-11e2-8e6d-f0def14af2c8'
p467
sbssg70
F2
sg71
I00
sg72
I00
sg73
F1
sg74
I01
sg75
F2
sg76
F22.52718309859155
sg77
F36.5
sg78
F2294.5
sg79
I01
sg80
F6.2612676056338019
sg81
F2
sg82
F300
sg141
I00
sg83
g163
sg85
I00
sg86
F6.2612676056338019
sg87
I00
sg88
I00
sg89
F2
sg90
g47
sg91
I01
sg92
F0
sg93
(iclasses.files
OpenShotFile
p468
(dp469
g96
F14999
sg97
S''
sg98
I0
sg99
S'/home/mospina/thumbnail/7ca5689e-5fb1-11e2-8e6d-f0def14af2c8_png_1.png'
p470
sg36
S'/home/mospina/manuel/studio/plaga/capitulo_01/storyboard/035.png'
p471
sg38
Nsg102
g103
sg104
I0
sg62
I720
sg105
g1
sg63
I1280
sg106
F300
sg107
F29.970029970029969
sg108
I1
sg109
S''
sg110
(F29.970029970029969
I0
tp472
sg112
S''
sg45
S'7cad66ca-5fb1-11e2-8e6d-f0def14af2c8'
p473
sbsg114
I00
sg115
F100
sg116
(lp474
sg118
F0
sg119
F0
sg120
I00
sg121
S'/home/mospina/thumbnail/7ca5689e-5fb1-11e2-8e6d-f0def14af2c8_png_1.png'
p475
sg24
S'035.png'
p476
sg124
F22.793732394366199
sg125
I494
sg126
g163
sg128
I01
sg129
F1.2212676056338023
sg130
S'75f739ac-6072-11e2-8e6d-f0def14af2c8'
p477
sba(iclasses.clip
clip
p478
(dp479
g52
g53
sg54
I01
sg55
I00
sg56
(dp480
g58
(iclasses.keyframe
keyframe
p481
(dp482
g61
I0
sg62
F100
sg63
F100
sS'x'
F0
sS'y'
F0
sg64
F1
sg45
S'7d7fd792-6072-11e2-8e6d-f0def14af2c8'
p483
sbsg66
(iclasses.keyframe
keyframe
p484
(dp485
g61
I-1
sg62
F100
sg63
F100
sS'x'
F0
sS'y'
F0
sg64
F1
sg45
S'7d7fdf94-6072-11e2-8e6d-f0def14af2c8'
p486
sbssg70
F2
sg71
I00
sg72
I00
sg73
F1
sg74
I01
sg75
F2
sg76
F23.748450704225352
sg77
F31.5
sg78
F2428.5
sg79
I01
sg80
F4.7800000000000002
sg81
F2
sg82
F300
sg141
I00
sg83
g163
sg85
I00
sg86
F4.7800000000000002
sg87
I00
sg88
I00
sg89
F2
sg90
g47
sg91
I01
sg92
F0
sg93
(iclasses.files
OpenShotFile
p487
(dp488
g96
F14999
sg97
S''
sg98
I0
sg99
S'/home/mospina/thumbnail/7cae4ce8-5fb1-11e2-8e6d-f0def14af2c8_png_1.png'
p489
sg36
S'/home/mospina/manuel/studio/plaga/capitulo_01/storyboard/036.png'
p490
sg38
Nsg102
g103
sg104
I0
sg62
I720
sg105
g1
sg63
I1280
sg106
F300
sg107
F29.970029970029969
sg108
I1
sg109
S''
sg110
(F29.970029970029969
I0
tp491
sg112
S''
sg45
S'7cb66ec8-5fb1-11e2-8e6d-f0def14af2c8'
p492
sbsg114
I00
sg115
F100
sg116
(lp493
sg118
F0
sg119
F0
sg120
I00
sg121
S'/home/mospina/thumbnail/7cae4ce8-5fb1-11e2-8e6d-f0def14af2c8_png_1.png'
p494
sg24
S'036.png'
p495
sg124
F24.015000000000001
sg125
I494
sg126
g163
sg128
I01
sg129
F1.25
sg130
S'7d7fcd6a-6072-11e2-8e6d-f0def14af2c8'
p496
sba(iclasses.clip
clip
p497
(dp498
g52
g53
sg54
I01
sg55
I00
sg56
(dp499
g58
(iclasses.keyframe
keyframe
p500
(dp501
g61
I0
sg62
F100
sg63
F100
sS'x'
F0
sS'y'
F0
sg64
F1
sg45
S'85977f34-6072-11e2-8e6d-f0def14af2c8'
p502
sbsg66
(iclasses.keyframe
keyframe
p503
(dp504
g61
I-1
sg62
F100
sg63
F100
sS'x'
F0
sS'y'
F0
sg64
F1
sg45
S'8597870e-6072-11e2-8e6d-f0def14af2c8'
p505
sbssg70
F2
sg71
I00
sg72
I00
sg73
F1
sg74
I01
sg75
F2
sg76
F24.998450704225352
sg77
F39.5
sg78
F2561.5
sg79
I01
sg80
F3.6499999999999999
sg81
F2
sg82
F300
sg141
I00
sg83
g163
sg85
I00
sg86
F3.6499999999999999
sg87
I00
sg88
I00
sg89
F2
sg90
g47
sg91
I01
sg92
F0
sg93
(iclasses.files
OpenShotFile
p506
(dp507
g96
F14999
sg97
S''
sg98
I0
sg99
S'/home/mospina/thumbnail/7cb7672e-5fb1-11e2-8e6d-f0def14af2c8_png_1.png'
p508
sg36
S'/home/mospina/manuel/studio/plaga/capitulo_01/storyboard/037.png'
p509
sg38
Nsg102
g103
sg104
I0
sg62
I720
sg105
g1
sg63
I1280
sg106
F300
sg107
F29.970029970029969
sg108
I1
sg109
S''
sg110
(F29.970029970029969
I0
tp510
sg112
S''
sg45
S'7cbf9da4-5fb1-11e2-8e6d-f0def14af2c8'
p511
sbsg114
I00
sg115
F100
sg116
(lp512
sg118
F0
sg119
F0
sg120
I00
sg121
S'/home/mospina/thumbnail/7cb7672e-5fb1-11e2-8e6d-f0def14af2c8_png_1.png'
p513
sg24
S'037.png'
p514
sg124
F25.265000000000001
sg125
I494
sg126
g163
sg128
I01
sg129
F1.25
sg130
S'85975db0-6072-11e2-8e6d-f0def14af2c8'
p515
sba(iclasses.clip
clip
p516
(dp517
g52
g53
sg54
I01
sg55
I00
sg56
(dp518
g58
(iclasses.keyframe
keyframe
p519
(dp520
g61
I0
sg62
F100
sg63
F100
sS'x'
F0
sS'y'
F0
sg64
F1
sg45
S'8d86b084-6072-11e2-8e6d-f0def14af2c8'
p521
sbsg66
(iclasses.keyframe
keyframe
p522
(dp523
g61
I-1
sg62
F100
sg63
F100
sS'x'
F0
sS'y'
F0
sg64
F1
sg45
S'8d86b818-6072-11e2-8e6d-f0def14af2c8'
p524
sbssg70
F2
sg71
I00
sg72
I00
sg73
F1
sg74
I01
sg75
F2
sg76
F26.248450704225352
sg77
F40.5
sg78
F2671.5
sg79
I01
sg80
F7
sg81
F2
sg82
F300
sg141
I00
sg83
g163
sg85
I00
sg86
F7
sg87
I00
sg88
I00
sg89
F2
sg90
g47
sg91
I01
sg92
F0
sg93
(iclasses.files
OpenShotFile
p525
(dp526
g96
F14999
sg97
S''
sg98
I0
sg99
S'/home/mospina/thumbnail/7cc08124-5fb1-11e2-8e6d-f0def14af2c8_png_1.png'
p527
sg36
S'/home/mospina/manuel/studio/plaga/capitulo_01/storyboard/038.png'
p528
sg38
Nsg102
g103
sg104
I0
sg62
I720
sg105
g1
sg63
I1280
sg106
F300
sg107
F29.970029970029969
sg108
I1
sg109
S''
sg110
(F29.970029970029969
I0
tp529
sg112
S''
sg45
S'7cc82da2-5fb1-11e2-8e6d-f0def14af2c8'
p530
sbsg114
I00
sg115
F100
sg116
(lp531
sg118
F0
sg119
F0
sg120
I00
sg121
S'/home/mospina/thumbnail/7cc08124-5fb1-11e2-8e6d-f0def14af2c8_png_1.png'
p532
sg24
S'038.png'
p533
sg124
F26.515000000000001
sg125
I494
sg126
g163
sg128
I01
sg129
F1.23
sg130
S'8d86a58a-6072-11e2-8e6d-f0def14af2c8'
p534
sba(iclasses.clip
clip
p535
(dp536
g52
g53
sg54
I01
sg55
I00
sg56
(dp537
g58
(iclasses.keyframe
keyframe
p538
(dp539
g61
I0
sg62
F100
sg63
F100
sS'x'
F0
sS'y'
F0
sg64
F1
sg45
S'a7a90a5c-6072-11e2-8e6d-f0def14af2c8'
p540
sbsg66
(iclasses.keyframe
keyframe
p541
(dp542
g61
I-1
sg62
F100
sg63
F100
sS'x'
F0
sS'y'
F0
sg64
F1
sg45
S'a7a92a82-6072-11e2-8e6d-f0def14af2c8'
p543
sbssg70
F2
sg71
I00
sg72
I00
sg73
F1
sg74
I01
sg75
F2
sg76
F27.478450704225352
sg77
F40.5
sg78
F752.65492957746483
sg79
I01
sg80
F7
sg81
F2
sg82
F300
sg83
g163
sg85
I00
sg86
F7
sg87
I00
sg88
I00
sg89
F2
sg90
g47
sg91
I01
sg92
F0
sg93
(iclasses.files
OpenShotFile
p544
(dp545
g96
F14999
sg97
S''
sg98
I0
sg99
S'/home/mospina/thumbnail/7cc976f8-5fb1-11e2-8e6d-f0def14af2c8_png_1.png'
p546
sg36
S'/home/mospina/manuel/studio/plaga/capitulo_01/storyboard/040.png'
p547
sg38
Nsg102
g103
sg104
I0
sg62
I720
sg105
g1
sg63
I1280
sg106
F300
sg107
F29.970029970029969
sg108
I1
sg109
S''
sg110
(F29.970029970029969
I0
tp548
sg112
S''
sg45
S'7cd0d52e-5fb1-11e2-8e6d-f0def14af2c8'
p549
sbsg114
I00
sg115
F100
sg116
(lp550
sg118
F0
sg119
F0
sg120
I00
sg121
S'/home/mospina/thumbnail/7cc976f8-5fb1-11e2-8e6d-f0def14af2c8_png_1.png'
p551
sg24
S'040.png'
p552
sg124
F27.478450704225352
sg125
I494
sg126
g163
sg128
I01
sg129
F1.2365492957746482
sg130
S'a7a8fe04-6072-11e2-8e6d-f0def14af2c8'
p553
sba(iclasses.clip
clip
p554
(dp555
g52
g53
sg54
I01
sg55
I00
sg56
(dp556
g58
(iclasses.keyframe
keyframe
p557
(dp558
g61
I0
sg62
F100
sg63
F100
sS'x'
F0
sS'y'
F0
sg64
F1
sg45
S'aa405464-6072-11e2-8e6d-f0def14af2c8'
p559
sbsg66
(iclasses.keyframe
keyframe
p560
(dp561
g61
I-1
sg62
F100
sg63
F100
sS'x'
F0
sS'y'
F0
sg64
F1
sg45
S'aa405c20-6072-11e2-8e6d-f0def14af2c8'
p562
sbssg70
F2
sg71
I00
sg72
I00
sg73
F1
sg74
I01
sg75
F2
sg76
F28.715
sg77
F32.5
sg78
F3494.5
sg79
I01
sg80
F7
sg81
F2
sg82
F300
sg141
I00
sg83
g163
sg85
I00
sg86
F7
sg87
I00
sg88
I00
sg89
F2
sg90
g47
sg91
I01
sg92
F0
sg93
(iclasses.files
OpenShotFile
p563
(dp564
g96
F14999
sg97
S''
sg98
I0
sg99
S'/home/mospina/thumbnail/7cd18d7a-5fb1-11e2-8e6d-f0def14af2c8_png_1.png'
p565
sg36
S'/home/mospina/manuel/studio/plaga/capitulo_01/storyboard/041.png'
p566
sg38
Nsg102
g103
sg104
I0
sg62
I720
sg105
g1
sg63
I1280
sg106
F300
sg107
F29.970029970029969
sg108
I1
sg109
S''
sg110
(F29.970029970029969
I0
tp567
sg112
S''
sg45
S'7cd8a060-5fb1-11e2-8e6d-f0def14af2c8'
p568
sbsg114
I00
sg115
F100
sg116
(lp569
sg118
F0
sg119
F0
sg120
I00
sg121
S'/home/mospina/thumbnail/7cd18d7a-5fb1-11e2-8e6d-f0def14af2c8_png_1.png'
p570
sg24
S'041.png'
p571
sg124
F34.478450704225352
sg125
I494
sg126
g163
sg128
I01
sg129
F1.2265492957746482
sg130
S'aa4049a6-6072-11e2-8e6d-f0def14af2c8'
p572
sba(iclasses.clip
clip
p573
(dp574
g52
g53
sg54
I01
sg55
I00
sg56
(dp575
g58
(iclasses.keyframe
keyframe
p576
(dp577
g61
I0
sg62
F100
sg63
F100
sS'x'
F0
sS'y'
F0
sg64
F1
sg45
S'b6b3b9a2-6072-11e2-8e6d-f0def14af2c8'
p578
sbsg66
(iclasses.keyframe
keyframe
p579
(dp580
g61
I-1
sg62
F100
sg63
F100
sS'x'
F0
sS'y'
F0
sg64
F1
sg45
S'b6b3c816-6072-11e2-8e6d-f0def14af2c8'
p581
sbssg70
F2
sg71
I00
sg72
I00
sg73
F1
sg74
I01
sg75
F2
sg76
F29.941549295774649
sg77
F40.5
sg78
F3599.5
sg79
I01
sg80
F5.8799999999999999
sg81
F2
sg82
F300
sg141
I00
sg83
g163
sg85
I00
sg86
F5.8799999999999999
sg87
I00
sg88
I00
sg89
F2
sg90
g47
sg91
I01
sg92
F0
sg93
(iclasses.files
OpenShotFile
p582
(dp583
g96
F14999
sg97
S''
sg98
I0
sg99
S'/home/mospina/thumbnail/7cda06d0-5fb1-11e2-8e6d-f0def14af2c8_png_1.png'
p584
sg36
S'/home/mospina/manuel/studio/plaga/capitulo_01/storyboard/042.png'
p585
sg38
Nsg102
g103
sg104
I0
sg62
I720
sg105
g1
sg63
I1280
sg106
F300
sg107
F29.970029970029969
sg108
I1
sg109
S''
sg110
(F29.970029970029969
I0
tp586
sg112
S''
sg45
S'7ce15a84-5fb1-11e2-8e6d-f0def14af2c8'
p587
sbsg114
I00
sg115
F100
sg116
(lp588
sg118
F0
sg119
F0
sg120
I00
sg121
S'/home/mospina/thumbnail/7cda06d0-5fb1-11e2-8e6d-f0def14af2c8_png_1.png'
p589
sg24
S'042.png'
p590
sg124
F35.704999999999998
sg125
I494
sg126
g163
sg128
I01
sg129
F1.23
sg130
S'b6b3aafc-6072-11e2-8e6d-f0def14af2c8'
p591
sba(iclasses.clip
clip
p592
(dp593
g52
g53
sg54
I01
sg55
I00
sg56
(dp594
g58
(iclasses.keyframe
keyframe
p595
(dp596
g61
I0
sg62
F100
sg63
F100
sS'x'
F0
sS'y'
F0
sg64
F1
sg45
S'69cc9522-6073-11e2-8e6d-f0def14af2c8'
p597
sbsg66
(iclasses.keyframe
keyframe
p598
(dp599
g61
I-1
sg62
F100
sg63
F100
sS'x'
F0
sS'y'
F0
sg64
F1
sg45
S'69cc9cf2-6073-11e2-8e6d-f0def14af2c8'
p600
sbssg70
F2
sg71
I00
sg72
I00
sg73
F1
sg74
I01
sg75
F2
sg76
F31.17154929577465
sg77
F33.5
sg78
F1443.3450704225352
sg79
I01
sg80
F7
sg81
F2
sg82
F300
sg83
g163
sg85
I00
sg86
F7
sg87
I00
sg88
I00
sg89
F2
sg90
g47
sg91
I01
sg92
F0
sg93
(iclasses.files
OpenShotFile
p601
(dp602
g96
F14999
sg97
S''
sg98
I0
sg99
S'/home/mospina/thumbnail/7ce23b2a-5fb1-11e2-8e6d-f0def14af2c8_png_1.png'
p603
sg36
S'/home/mospina/manuel/studio/plaga/capitulo_01/storyboard/050.png'
p604
sg38
Nsg102
g103
sg104
I0
sg62
I720
sg105
g1
sg63
I1274
sg106
F300
sg107
F29.970029970029969
sg108
I1
sg109
S''
sg110
(F29.970029970029969
I0
tp605
sg112
S''
sg45
S'7ce91c38-5fb1-11e2-8e6d-f0def14af2c8'
p606
sbsg114
I00
sg115
F100
sg116
(lp607
sg118
F0
sg119
F0
sg120
I00
sg121
S'/home/mospina/thumbnail/7ce23b2a-5fb1-11e2-8e6d-f0def14af2c8_png_1.png'
p608
sg24
S'050.png'
p609
sg124
F31.17154929577465
sg125
I936
sg126
g163
sg128
I01
sg129
F1.2234507042253517
sg130
S'69cc89d8-6073-11e2-8e6d-f0def14af2c8'
p610
sba(iclasses.clip
clip
p611
(dp612
g52
g53
sg54
I01
sg55
I00
sg56
(dp613
g58
(iclasses.keyframe
keyframe
p614
(dp615
g61
I0
sg62
F100
sg63
F100
sS'x'
F0
sS'y'
F0
sg64
F1
sg45
S'74490422-6073-11e2-8e6d-f0def14af2c8'
p616
sbsg66
(iclasses.keyframe
keyframe
p617
(dp618
g61
I-1
sg62
F100
sg63
F100
sS'x'
F0
sS'y'
F0
sg64
F1
sg45
S'74490bac-6073-11e2-8e6d-f0def14af2c8'
p619
sbssg70
F2
sg71
I00
sg72
I00
sg73
F1
sg74
I01
sg75
F2
sg76
F32.395000000000003
sg77
F30.5
sg78
F1459
sg79
I01
sg80
F6.0399999999999956
sg81
F2
sg82
F300
sg83
g163
sg85
I00
sg86
F6.0399999999999956
sg87
I00
sg88
I00
sg89
F2
sg90
g47
sg91
I01
sg92
F0
sg93
(iclasses.files
OpenShotFile
p620
(dp621
g96
F14999
sg97
S''
sg98
I0
sg99
S'/home/mospina/thumbnail/7cea8cd0-5fb1-11e2-8e6d-f0def14af2c8_png_1.png'
p622
sg36
S'/home/mospina/manuel/studio/plaga/capitulo_01/storyboard/051.png'
p623
sg38
Nsg102
g103
sg104
I0
sg62
I720
sg105
g1
sg63
I1274
sg106
F300
sg107
F29.970029970029969
sg108
I1
sg109
S''
sg110
(F29.970029970029969
I0
tp624
sg112
S''
sg45
S'7cf1545c-5fb1-11e2-8e6d-f0def14af2c8'
p625
sbsg114
I00
sg115
F100
sg116
(lp626
sg118
F0
sg119
F0
sg120
I00
sg121
S'/home/mospina/thumbnail/7cea8cd0-5fb1-11e2-8e6d-f0def14af2c8_png_1.png'
p627
sg24
S'051.png'
p628
sg124
F32.395000000000003
sg125
I936
sg126
g163
sg128
I01
sg129
F1.2299999999999955
sg130
S'7448f9f0-6073-11e2-8e6d-f0def14af2c8'
p629
sba(iclasses.clip
clip
p630
(dp631
g52
g53
sg54
I01
sg55
I00
sg56
(dp632
g58
(iclasses.keyframe
keyframe
p633
(dp634
g61
I0
sg62
F100
sg63
F100
sS'x'
F0
sS'y'
F0
sg64
F1
sg45
S'7dd25ef8-6073-11e2-8e6d-f0def14af2c8'
p635
sbsg66
(iclasses.keyframe
keyframe
p636
(dp637
g61
I-1
sg62
F100
sg63
F100
sS'x'
F0
sS'y'
F0
sg64
F1
sg45
S'7dd26682-6073-11e2-8e6d-f0def14af2c8'
p638
sbssg70
F2
sg71
I00
sg72
I00
sg73
F1
sg74
I01
sg75
F2
sg76
F33.625
sg77
F36.5
sg78
F3486.5
sg79
I01
sg80
F1.24
sg81
F2
sg82
F300
sg83
g163
sg85
I00
sg86
F1.24
sg87
I00
sg88
I00
sg89
F2
sg90
g47
sg91
I01
sg92
F0
sg93
(iclasses.files
OpenShotFile
p639
(dp640
g96
F14999
sg97
S''
sg98
I0
sg99
S'/home/mospina/thumbnail/7cf298bc-5fb1-11e2-8e6d-f0def14af2c8_png_1.png'
p641
sg36
S'/home/mospina/manuel/studio/plaga/capitulo_01/storyboard/052.png'
p642
sg38
Nsg102
g103
sg104
I0
sg62
I720
sg105
g1
sg63
I1278
sg106
F300
sg107
F29.970029970029969
sg108
I1
sg109
S''
sg110
(F29.970029970029969
I0
tp643
sg112
S''
sg45
S'7cf8ee38-5fb1-11e2-8e6d-f0def14af2c8'
p644
sbsg114
I00
sg115
F100
sg116
(lp645
sg118
F0
sg119
F0
sg120
I00
sg121
S'/home/mospina/thumbnail/7cf298bc-5fb1-11e2-8e6d-f0def14af2c8_png_1.png'
p646
sg24
S'052.png'
p647
sg124
F33.625
sg125
I936
sg126
g163
sg128
I01
sg129
F1.22
sg130
S'7dd254c6-6073-11e2-8e6d-f0def14af2c8'
p648
sba(iclasses.clip
clip
p649
(dp650
g52
g53
sg54
I01
sg55
I00
sg56
(dp651
g58
(iclasses.keyframe
keyframe
p652
(dp653
g61
I0
sg62
F100
sg63
F100
sS'x'
F0
sS'y'
F0
sg64
F1
sg45
S'87064d7c-6073-11e2-8e6d-f0def14af2c8'
p654
sbsg66
(iclasses.keyframe
keyframe
p655
(dp656
g61
I-1
sg62
F100
sg63
F100
sS'x'
F0
sS'y'
F0
sg64
F1
sg45
S'87065272-6073-11e2-8e6d-f0def14af2c8'
p657
sbssg70
F2
sg71
I00
sg72
I00
sg73
F1
sg74
I01
sg75
F2
sg76
F34.844999999999999
sg77
F29.5
sg78
F1460
sg79
I01
sg80
F3.7599999999999998
sg81
F2
sg82
F300
sg83
g163
sg85
I00
sg86
F3.7599999999999998
sg87
I00
sg88
I00
sg89
F2
sg90
g47
sg91
I01
sg92
F0
sg93
(iclasses.files
OpenShotFile
p658
(dp659
g96
F14999
sg97
S''
sg98
I0
sg99
S'/home/mospina/thumbnail/7cfa4198-5fb1-11e2-8e6d-f0def14af2c8_png_1.png'
p660
sg36
S'/home/mospina/manuel/studio/plaga/capitulo_01/storyboard/053.png'
p661
sg38
Nsg102
g103
sg104
I0
sg62
I720
sg105
g1
sg63
I1278
sg106
F300
sg107
F29.970029970029969
sg108
I1
sg109
S''
sg110
(F29.970029970029969
I0
tp662
sg112
S''
sg45
S'7d00b866-5fb1-11e2-8e6d-f0def14af2c8'
p663
sbsg114
I00
sg115
F100
sg116
(lp664
sg118
F0
sg119
F0
sg120
I00
sg121
S'/home/mospina/thumbnail/7cfa4198-5fb1-11e2-8e6d-f0def14af2c8_png_1.png'
p665
sg24
S'053.png'
p666
sg124
F34.844999999999999
sg125
I936
sg126
g163
sg128
I01
sg129
F1.22
sg130
S'87064534-6073-11e2-8e6d-f0def14af2c8'
p667
sba(iclasses.clip
clip
p668
(dp669
g52
g53
sg54
I01
sg55
I00
sg56
(dp670
g58
(iclasses.keyframe
keyframe
p671
(dp672
g61
I0
sg62
F100
sg63
F100
sS'x'
F0
sS'y'
F0
sg64
F1
sg45
S'8dfc84ac-6073-11e2-8e6d-f0def14af2c8'
p673
sbsg66
(iclasses.keyframe
keyframe
p674
(dp675
g61
I-1
sg62
F100
sg63
F100
sS'x'
F0
sS'y'
F0
sg64
F1
sg45
S'8dfc87ea-6073-11e2-8e6d-f0def14af2c8'
p676
sbssg70
F2
sg71
I00
sg72
I00
sg73
F1
sg74
I01
sg75
F2
sg76
F36.064999999999998
sg77
F44.5
sg78
F1685
sg79
I01
sg80
F7
sg81
F2
sg82
F300
sg83
g163
sg85
I00
sg86
F7
sg87
I00
sg88
I00
sg89
F2
sg90
g47
sg91
I01
sg92
F0
sg93
(iclasses.files
OpenShotFile
p677
(dp678
g96
F14999
sg97
S''
sg98
I0
sg99
S'/home/mospina/thumbnail/7d0204e6-5fb1-11e2-8e6d-f0def14af2c8_png_1.png'
p679
sg36
S'/home/mospina/manuel/studio/plaga/capitulo_01/storyboard/054.png'
p680
sg38
Nsg102
g103
sg104
I0
sg62
I720
sg105
g1
sg63
I1278
sg106
F300
sg107
F29.970029970029969
sg108
I1
sg109
S''
sg110
(F29.970029970029969
I0
tp681
sg112
S''
sg45
S'7d092640-5fb1-11e2-8e6d-f0def14af2c8'
p682
sbsg114
I00
sg115
F100
sg116
(lp683
sg118
F0
sg119
F0
sg120
I00
sg121
S'/home/mospina/thumbnail/7d0204e6-5fb1-11e2-8e6d-f0def14af2c8_png_1.png'
p684
sg24
S'054.png'
p685
sg124
F36.064999999999998
sg125
I936
sg126
g163
sg128
I01
sg129
F1.22
sg130
S'8dfc7ef8-6073-11e2-8e6d-f0def14af2c8'
p686
sba(iclasses.clip
clip
p687
(dp688
g52
g53
sg54
I01
sg55
I00
sg56
(dp689
g58
(iclasses.keyframe
keyframe
p690
(dp691
g61
I0
sg62
F100
sg63
F100
sS'x'
F0
sS'y'
F0
sg64
F1
sg45
S'96f5f5ac-6073-11e2-8e6d-f0def14af2c8'
p692
sbsg66
(iclasses.keyframe
keyframe
p693
(dp694
g61
I-1
sg62
F100
sg63
F100
sS'x'
F0
sS'y'
F0
sg64
F1
sg45
S'96f5f8ea-6073-11e2-8e6d-f0def14af2c8'
p695
sbssg70
F2
sg71
I00
sg72
I00
sg73
F1
sg74
I01
sg75
F2
sg76
F37.284999999999997
sg77
F40.5
sg78
F1026
sg79
I01
sg80
F7
sg81
F2
sg82
F300
sg83
g163
sg85
I00
sg86
F7
sg87
I00
sg88
I00
sg89
F2
sg90
g47
sg91
I01
sg92
F0
sg93
(iclasses.files
OpenShotFile
p696
(dp697
g96
F14999
sg97
S''
sg98
I0
sg99
S'/home/mospina/thumbnail/7d0ab19a-5fb1-11e2-8e6d-f0def14af2c8_png_1.png'
p698
sg36
S'/home/mospina/manuel/studio/plaga/capitulo_01/storyboard/055.png'
p699
sg38
Nsg102
g103
sg104
I0
sg62
I720
sg105
g1
sg63
I1274
sg106
F300
sg107
F29.970029970029969
sg108
I1
sg109
S''
sg110
(F29.970029970029969
I0
tp700
sg112
S''
sg45
S'7d11725a-5fb1-11e2-8e6d-f0def14af2c8'
p701
sbsg114
I00
sg115
F100
sg116
(lp702
sg118
F0
sg119
F0
sg120
I00
sg121
S'/home/mospina/thumbnail/7d0ab19a-5fb1-11e2-8e6d-f0def14af2c8_png_1.png'
p703
sg24
S'055.png'
p704
sg124
F37.284999999999997
sg125
I936
sg126
g163
sg128
I01
sg129
F1.2200000000000046
sg130
S'96f5f034-6073-11e2-8e6d-f0def14af2c8'
p705
sba(iclasses.clip
clip
p706
(dp707
g52
g53
sg54
I01
sg55
I00
sg56
(dp708
g58
(iclasses.keyframe
keyframe
p709
(dp710
g61
I0
sg62
F100
sg63
F100
sS'x'
F0
sS'y'
F0
sg64
F1
sg45
S'9c74ece0-6073-11e2-8e6d-f0def14af2c8'
p711
sbsg66
(iclasses.keyframe
keyframe
p712
(dp713
g61
I-1
sg62
F100
sg63
F100
sS'x'
F0
sS'y'
F0
sg64
F1
sg45
S'9c74f01e-6073-11e2-8e6d-f0def14af2c8'
p714
sbssg70
F2
sg71
I00
sg72
I00
sg73
F1
sg74
I01
sg75
F2
sg76
F38.505000000000003
sg77
F45.5
sg78
F3973.5
sg79
I01
sg80
F1.2399999999999956
sg81
F2
sg82
F300
sg83
g163
sg85
I00
sg86
F1.2399999999999956
sg87
I00
sg88
I00
sg89
F2
sg90
g47
sg91
I01
sg92
F0
sg93
(iclasses.files
OpenShotFile
p715
(dp716
g96
F14999
sg97
S''
sg98
I0
sg99
S'/home/mospina/thumbnail/7d12b516-5fb1-11e2-8e6d-f0def14af2c8_png_1.png'
p717
sg36
S'/home/mospina/manuel/studio/plaga/capitulo_01/storyboard/056.png'
p718
sg38
Nsg102
g103
sg104
I0
sg62
I720
sg105
g1
sg63
I1274
sg106
F300
sg107
F29.970029970029969
sg108
I1
sg109
S''
sg110
(F29.970029970029969
I0
tp719
sg112
S''
sg45
S'7d1a18ce-5fb1-11e2-8e6d-f0def14af2c8'
p720
sbsg114
I00
sg115
F100
sg116
(lp721
sg118
F0
sg119
F0
sg120
I00
sg121
S'/home/mospina/thumbnail/7d12b516-5fb1-11e2-8e6d-f0def14af2c8_png_1.png'
p722
sg24
S'056.png'
p723
sg124
F38.505000000000003
sg125
I936
sg126
g163
sg128
I01
sg129
F1.2399999999999956
sg130
S'9c74e786-6073-11e2-8e6d-f0def14af2c8'
p724
sba(iclasses.clip
clip
p725
(dp726
g52
g53
sg54
I01
sg55
I00
sg56
(dp727
g58
(iclasses.keyframe
keyframe
p728
(dp729
g61
I0
sg62
F100
sg63
F100
sS'x'
F0
sS'y'
F0
sg64
F1
sg45
S'c26357fc-6073-11e2-8e6d-f0def14af2c8'
p730
sbsg66
(iclasses.keyframe
keyframe
p731
(dp732
g61
I-1
sg62
F100
sg63
F100
sS'x'
F0
sS'y'
F0
sg64
F1
sg45
S'c2636044-6073-11e2-8e6d-f0def14af2c8'
p733
sbssg70
F2
sg71
I00
sg72
I00
sg73
F1
sg74
I01
sg75
F2
sg76
F39.744999999999997
sg77
F28.5
sg78
F1395
sg79
I01
sg80
F7
sg81
F2
sg82
F300
sg83
g163
sg85
I00
sg86
F7
sg87
I00
sg88
I00
sg89
F2
sg90
g47
sg91
I01
sg92
F0
sg93
(iclasses.files
OpenShotFile
p734
(dp735
g96
F14999
sg97
S''
sg98
I0
sg99
S'/home/mospina/thumbnail/7d1b9956-5fb1-11e2-8e6d-f0def14af2c8_png_1.png'
p736
sg36
S'/home/mospina/manuel/studio/plaga/capitulo_01/storyboard/060.png'
p737
sg38
Nsg102
g103
sg104
I0
sg62
I720
sg105
g1
sg63
I1280
sg106
F300
sg107
F29.970029970029969
sg108
I1
sg109
S''
sg110
(F29.970029970029969
I0
tp738
sg112
S''
sg45
S'7d221484-5fb1-11e2-8e6d-f0def14af2c8'
p739
sbsg114
I00
sg115
F100
sg116
(lp740
sg118
F0
sg119
F0
sg120
I00
sg121
S'/home/mospina/thumbnail/7d1b9956-5fb1-11e2-8e6d-f0def14af2c8_png_1.png'
p741
sg24
S'060.png'
p742
sg124
F39.744999999999997
sg125
I1195
sg126
g163
sg128
I01
sg129
F1.2200000000000046
sg130
S'c26349c4-6073-11e2-8e6d-f0def14af2c8'
p743
sba(iclasses.clip
clip
p744
(dp745
g52
g53
sg54
I01
sg55
I00
sg56
(dp746
g58
(iclasses.keyframe
keyframe
p747
(dp748
g61
I0
sg62
F100
sg63
F100
sS'x'
F0
sS'y'
F0
sg64
F1
sg45
S'ca38aeb4-6073-11e2-8e6d-f0def14af2c8'
p749
sbsg66
(iclasses.keyframe
keyframe
p750
(dp751
g61
I-1
sg62
F100
sg63
F100
sS'x'
F0
sS'y'
F0
sg64
F1
sg45
S'ca38b1e8-6073-11e2-8e6d-f0def14af2c8'
p752
sbssg70
F2
sg71
I00
sg72
I00
sg73
F1
sg74
I01
sg75
F2
sg76
F40.965000000000003
sg77
F34.5
sg78
F1189
sg79
I01
sg80
F6.3799999999999999
sg81
F2
sg82
F300
sg83
g163
sg85
I00
sg86
F6.3799999999999999
sg87
I00
sg88
I00
sg89
F2
sg90
g47
sg91
I01
sg92
F0
sg93
(iclasses.files
OpenShotFile
p753
(dp754
g96
F14999
sg97
S''
sg98
I0
sg99
S'/home/mospina/thumbnail/7d23a6aa-5fb1-11e2-8e6d-f0def14af2c8_png_1.png'
p755
sg36
S'/home/mospina/manuel/studio/plaga/capitulo_01/storyboard/061.png'
p756
sg38
Nsg102
g103
sg104
I0
sg62
I720
sg105
g1
sg63
I1280
sg106
F300
sg107
F29.970029970029969
sg108
I1
sg109
S''
sg110
(F29.970029970029969
I0
tp757
sg112
S''
sg45
S'7d2b59f4-5fb1-11e2-8e6d-f0def14af2c8'
p758
sbsg114
I00
sg115
F100
sg116
(lp759
sg118
F0
sg119
F0
sg120
I00
sg121
S'/home/mospina/thumbnail/7d23a6aa-5fb1-11e2-8e6d-f0def14af2c8_png_1.png'
p760
sg24
S'061.png'
p761
sg124
F40.965000000000003
sg125
I1195
sg126
g163
sg128
I01
sg129
F1.22
sg130
S'ca38a978-6073-11e2-8e6d-f0def14af2c8'
p762
sba(iclasses.clip
clip
p763
(dp764
g52
g53
sg54
I01
sg55
I00
sg56
(dp765
g58
(iclasses.keyframe
keyframe
p766
(dp767
g61
I0
sg62
F100
sg63
F100
sS'x'
F0
sS'y'
F0
sg64
F1
sg45
S'd0f45938-6073-11e2-8e6d-f0def14af2c8'
p768
sbsg66
(iclasses.keyframe
keyframe
p769
(dp770
g61
I-1
sg62
F100
sg63
F100
sS'x'
F0
sS'y'
F0
sg64
F1
sg45
S'd0f45ce4-6073-11e2-8e6d-f0def14af2c8'
p771
sbssg70
F2
sg71
I00
sg72
I00
sg73
F1
sg74
I01
sg75
F2
sg76
F42.185000000000002
sg77
F27.5
sg78
F1487
sg79
I01
sg80
F5.04
sg81
F2
sg82
F300
sg83
g163
sg85
I00
sg86
F5.04
sg87
I00
sg88
I00
sg89
F2
sg90
g47
sg91
I01
sg92
F0
sg93
(iclasses.files
OpenShotFile
p772
(dp773
g96
F14999
sg97
S''
sg98
I0
sg99
S'/home/mospina/thumbnail/7d2cfc32-5fb1-11e2-8e6d-f0def14af2c8_png_1.png'
p774
sg36
S'/home/mospina/manuel/studio/plaga/capitulo_01/storyboard/062.png'
p775
sg38
Nsg102
g103
sg104
I0
sg62
I720
sg105
g1
sg63
I1280
sg106
F300
sg107
F29.970029970029969
sg108
I1
sg109
S''
sg110
(F29.970029970029969
I0
tp776
sg112
S''
sg45
S'7d35a922-5fb1-11e2-8e6d-f0def14af2c8'
p777
sbsg114
I00
sg115
F100
sg116
(lp778
sg118
F0
sg119
F0
sg120
I00
sg121
S'/home/mospina/thumbnail/7d2cfc32-5fb1-11e2-8e6d-f0def14af2c8_png_1.png'
p779
sg24
S'062.png'
p780
sg124
F42.185000000000002
sg125
I1195
sg126
g163
sg128
I01
sg129
F1.23
sg130
S'd0f44efc-6073-11e2-8e6d-f0def14af2c8'
p781
sba(iclasses.clip
clip
p782
(dp783
g52
g53
sg54
I01
sg55
I00
sg56
(dp784
g58
(iclasses.keyframe
keyframe
p785
(dp786
g61
I0
sg62
F100
sg63
F100
sS'x'
F0
sS'y'
F0
sg64
F1
sg45
S'd9036a7e-6073-11e2-8e6d-f0def14af2c8'
p787
sbsg66
(iclasses.keyframe
keyframe
p788
(dp789
g61
I-1
sg62
F100
sg63
F100
sS'x'
F0
sS'y'
F0
sg64
F1
sg45
S'd9037226-6073-11e2-8e6d-f0def14af2c8'
p790
sbssg70
F2
sg71
I00
sg72
I00
sg73
F1
sg74
I01
sg75
F2
sg76
F43.414999999999999
sg77
F30.5
sg78
F1477
sg79
I01
sg80
F4.0300000000000002
sg81
F2
sg82
F300
sg83
g163
sg85
I00
sg86
F4.0300000000000002
sg87
I00
sg88
I00
sg89
F2
sg90
g47
sg91
I01
sg92
F0
sg93
(iclasses.files
OpenShotFile
p791
(dp792
g96
F14999
sg97
S''
sg98
I0
sg99
S'/home/mospina/thumbnail/7d36febc-5fb1-11e2-8e6d-f0def14af2c8_png_1.png'
p793
sg36
S'/home/mospina/manuel/studio/plaga/capitulo_01/storyboard/063.png'
p794
sg38
Nsg102
g103
sg104
I0
sg62
I720
sg105
g1
sg63
I1280
sg106
F300
sg107
F29.970029970029969
sg108
I1
sg109
S''
sg110
(F29.970029970029969
I0
tp795
sg112
S''
sg45
S'7d3d0fe6-5fb1-11e2-8e6d-f0def14af2c8'
p796
sbsg114
I00
sg115
F100
sg116
(lp797
sg118
F0
sg119
F0
sg120
I00
sg121
S'/home/mospina/thumbnail/7d36febc-5fb1-11e2-8e6d-f0def14af2c8_png_1.png'
p798
sg24
S'063.png'
p799
sg124
F43.414999999999999
sg125
I1195
sg126
g163
sg128
I01
sg129
F1.24
sg130
S'd9036006-6073-11e2-8e6d-f0def14af2c8'
p800
sba(iclasses.clip
clip
p801
(dp802
g52
g53
sg54
I01
sg55
I00
sg56
(dp803
g58
(iclasses.keyframe
keyframe
p804
(dp805
g63
F100
sg64
F1
sS'y'
F0
sS'x'
F0
sg61
I0
sg45
S'f086bbf6-6073-11e2-8e6d-f0def14af2c8'
p806
sg62
F100
sbsg66
(iclasses.keyframe
keyframe
p807
(dp808
g63
F100
sg64
F1
sS'y'
F0
sS'x'
F0
sg61
I-1
sg45
S'f086c22c-6073-11e2-8e6d-f0def14af2c8'
p809
sg62
F100
sbssg70
F2
sg71
I00
sg72
I00
sg73
F1
sg74
I01
sg75
F2
sg76
F44.650749999999995
sg77
F100.5
sg78
F4750.5
sg79
I01
sg80
F2.884250000000002
sg81
F2
sg82
F300
sS'show_preview'
p810
I00
sg83
S'centre'
p811
sg85
I00
sg86
F2.884250000000002
sg87
I00
sg88
I00
sg89
F2
sg90
g47
sg91
I01
sg92
F0
sg93
(iclasses.files
OpenShotFile
p812
(dp813
g96
F14999
sg97
S''
sg98
I0
sg99
S'/home/mospina/thumbnail/7d3ea78e-5fb1-11e2-8e6d-f0def14af2c8_png_1.png'
p814
sg36
S'/home/mospina/manuel/studio/plaga/capitulo_01/storyboard/070.png'
p815
sg38
Nsg102
g103
sg104
I0
sg62
I720
sg105
g1
sg63
I1280
sg106
F300
sg107
F29.970029970029969
sg108
I1
sg109
S''
sg110
(F29.970029970029969
I0
tp816
sg112
S''
sg45
S'7d44bf0c-5fb1-11e2-8e6d-f0def14af2c8'
p817
sbsg114
I00
sg115
F100
sg116
(lp818
sg118
F0
sg119
F0
sg120
I00
sg121
S'/home/mospina/thumbnail/7d3ea78e-5fb1-11e2-8e6d-f0def14af2c8_png_1.png'
p819
sg24
S'070.png'
p820
sg124
F44.650749999999995
sg125
I1526
sg126
S'centre'
p821
sg128
I01
sg129
F3.3342500000000017
sg130
S'f086b214-6073-11e2-8e6d-f0def14af2c8'
p822
sba(iclasses.clip
clip
p823
(dp824
g52
g53
sg54
I01
sg55
I00
sg56
(dp825
g58
(iclasses.keyframe
keyframe
p826
(dp827
g63
F100
sg64
F1
sS'y'
F0
sS'x'
F0
sg61
I0
sg45
S'f671b4b2-6073-11e2-8e6d-f0def14af2c8'
p828
sg62
F100
sbsg66
(iclasses.keyframe
keyframe
p829
(dp830
g63
F100
sg64
F1
sS'y'
F0
sS'x'
F0
sg61
I-1
sg45
S'f671bc5a-6073-11e2-8e6d-f0def14af2c8'
p831
sg62
F100
sbssg70
F2
sg71
I00
sg72
I00
sg73
F1
sg74
I01
sg75
F2
sg76
F47.984999999999999
sg77
F99.5
sg78
F5090.7533333333322
sg79
I01
sg80
F2
sg81
F2
sg82
F300
sS'show_preview'
p832
I00
sg83
S'centre'
p833
sg85
I00
sg86
F2
sg87
I00
sg88
I00
sg89
F2
sg90
g47
sg91
I01
sg92
F0
sg93
(iclasses.files
OpenShotFile
p834
(dp835
g96
F14999
sg97
S''
sg98
I0
sg99
S'/home/mospina/thumbnail/7d4571b8-5fb1-11e2-8e6d-f0def14af2c8_png_1.png'
p836
sg36
S'/home/mospina/manuel/studio/plaga/capitulo_01/storyboard/071.png'
p837
sg38
Nsg102
g103
sg104
I0
sg62
I720
sg105
g1
sg63
I1280
sg106
F300
sg107
F29.970029970029969
sg108
I1
sg109
S''
sg110
(F29.970029970029969
I0
tp838
sg112
S''
sg45
S'7d4aecb0-5fb1-11e2-8e6d-f0def14af2c8'
p839
sbsg114
I00
sg115
F100
sg116
(lp840
sg118
F0
sg119
F0
sg120
I00
sg121
S'/home/mospina/thumbnail/7d4571b8-5fb1-11e2-8e6d-f0def14af2c8_png_1.png'
p841
sg24
S'071.png'
p842
sg124
F47.984999999999999
sg125
I1526
sg126
S'centre'
p843
sg128
I01
sg129
F2.9199999999999999
sg130
S'f671a94a-6073-11e2-8e6d-f0def14af2c8'
p844
sba(iclasses.clip
clip
p845
(dp846
g52
g53
sg54
I01
sg55
I00
sg56
(dp847
g58
(iclasses.keyframe
keyframe
p848
(dp849
g61
I0
sg62
F100
sg63
F100
sS'x'
F0
sS'y'
F0
sg64
F1
sg45
S'05f0fc40-6074-11e2-8e6d-f0def14af2c8'
p850
sbsg66
(iclasses.keyframe
keyframe
p851
(dp852
g61
I-1
sg62
F100
sg63
F100
sS'x'
F0
sS'y'
F0
sg64
F1
sg45
S'05f103d4-6074-11e2-8e6d-f0def14af2c8'
p853
sbssg70
F2
sg71
I00
sg72
I00
sg73
F1
sg74
I01
sg75
F2
sg76
F50.917533333333331
sg77
F108.5
sg78
F5715.5733333333337
sg79
I01
sg80
F1.7967333333333317
sg81
F2
sg82
F300
sS'show_preview'
p854
I00
sg83
g163
sg85
I00
sg86
F1.7967333333333317
sg87
I00
sg88
I00
sg89
F2
sg90
g47
sg91
I01
sg92
F0
sg93
(iclasses.files
OpenShotFile
p855
(dp856
g96
F14999
sg97
S''
sg98
I0
sg99
S'/home/mospina/thumbnail/7d4c6978-5fb1-11e2-8e6d-f0def14af2c8_png_1.png'
p857
sg36
S'/home/mospina/manuel/studio/plaga/capitulo_01/storyboard/080.png'
p858
sg38
Nsg102
g103
sg104
I0
sg62
I720
sg105
g1
sg63
I1280
sg106
F300
sg107
F29.970029970029969
sg108
I1
sg109
S''
sg110
(F29.970029970029969
I0
tp859
sg112
S''
sg45
S'7d52a4aa-5fb1-11e2-8e6d-f0def14af2c8'
p860
sbsg114
I00
sg115
F100
sg116
(lp861
sg118
F0
sg119
F0
sg120
I00
sg121
S'/home/mospina/thumbnail/7d4c6978-5fb1-11e2-8e6d-f0def14af2c8_png_1.png'
p862
sg24
S'080.png'
p863
sg124
F50.917533333333331
sg125
I1685
sg126
g163
sg128
I01
sg129
F1.2474666666666689
sg130
S'05f0f11e-6074-11e2-8e6d-f0def14af2c8'
p864
sba(iclasses.clip
clip
p865
(dp866
g52
g53
sg54
I01
sg55
I00
sg56
(dp867
g58
(iclasses.keyframe
keyframe
p868
(dp869
g61
I0
sg62
F100
sg63
F100
sS'x'
F0
sS'y'
F0
sg64
F1
sg45
S'0cb53578-6074-11e2-8e6d-f0def14af2c8'
p870
sbsg66
(iclasses.keyframe
keyframe
p871
(dp872
g61
I-1
sg62
F100
sg63
F100
sS'x'
F0
sS'y'
F0
sg64
F1
sg45
S'0cb53d02-6074-11e2-8e6d-f0def14af2c8'
p873
sbssg70
F2
sg71
I00
sg72
I00
sg73
F1
sg74
I01
sg75
F2
sg76
F52.164999999999999
sg77
F106.5
sg78
F5887.8266666666668
sg79
I01
sg80
F1.7067333333333317
sg81
F2
sg82
F300
sg832
I00
sg83
g163
sg85
I00
sg86
F1.7067333333333317
sg87
I00
sg88
I00
sg89
F2
sg90
g47
sg91
I01
sg92
F0
sg93
(iclasses.files
OpenShotFile
p874
(dp875
g96
F14999
sg97
S''
sg98
I0
sg99
S'/home/mospina/thumbnail/7d53ff30-5fb1-11e2-8e6d-f0def14af2c8_png_1.png'
p876
sg36
S'/home/mospina/manuel/studio/plaga/capitulo_01/storyboard/081.png'
p877
sg38
Nsg102
g103
sg104
I0
sg62
I720
sg105
g1
sg63
I1280
sg106
F300
sg107
F29.970029970029969
sg108
I1
sg109
S''
sg110
(F29.970029970029969
I0
tp878
sg112
S''
sg45
S'7d5a1604-5fb1-11e2-8e6d-f0def14af2c8'
p879
sbsg114
I00
sg115
F100
sg116
(lp880
sg118
F0
sg119
F0
sg120
I00
sg121
S'/home/mospina/thumbnail/7d53ff30-5fb1-11e2-8e6d-f0def14af2c8_png_1.png'
p881
sg24
S'081.png'
p882
sg124
F52.164999999999999
sg125
I1685
sg126
g163
sg128
I01
sg129
F1.23
sg130
S'0cb52b14-6074-11e2-8e6d-f0def14af2c8'
p883
sba(iclasses.clip
clip
p884
(dp885
g52
g53
sg54
I01
sg55
I00
sg56
(dp886
g58
(iclasses.keyframe
keyframe
p887
(dp888
g61
I0
sg62
F100
sg63
F100
sS'x'
F0
sS'y'
F0
sg64
F1
sg45
S'13bf0196-6074-11e2-8e6d-f0def14af2c8'
p889
sbsg66
(iclasses.keyframe
keyframe
p890
(dp891
g61
I-1
sg62
F100
sg63
F100
sS'x'
F0
sS'y'
F0
sg64
F1
sg45
S'13bf0920-6074-11e2-8e6d-f0def14af2c8'
p892
sbssg70
F2
sg71
I00
sg72
I00
sg73
F1
sg74
I01
sg75
F2
sg76
F53.395000000000003
sg77
F108.5
sg78
F5907.5
sg79
I01
sg80
F1.22
sg81
F2
sg82
F300
sg832
I00
sg83
g163
sg85
I00
sg86
F1.22
sg87
I00
sg88
I00
sg89
F2
sg90
g47
sg91
I01
sg92
F0
sg93
(iclasses.files
OpenShotFile
p893
(dp894
g96
F14999
sg97
S''
sg98
I0
sg99
S'/home/mospina/thumbnail/7d5ae872-5fb1-11e2-8e6d-f0def14af2c8_png_1.png'
p895
sg36
S'/home/mospina/manuel/studio/plaga/capitulo_01/storyboard/082.png'
p896
sg38
Nsg102
g103
sg104
I0
sg62
I720
sg105
g1
sg63
I1280
sg106
F300
sg107
F29.970029970029969
sg108
I1
sg109
S''
sg110
(F29.970029970029969
I0
tp897
sg112
S''
sg45
S'7d61755c-5fb1-11e2-8e6d-f0def14af2c8'
p898
sbsg114
I00
sg115
F100
sg116
(lp899
sg118
F0
sg119
F0
sg120
I00
sg121
S'/home/mospina/thumbnail/7d5ae872-5fb1-11e2-8e6d-f0def14af2c8_png_1.png'
p900
sg24
S'082.png'
p901
sg124
F58.878266666666669
sg125
I1694
sg126
g163
sg128
I01
sg129
F1.22
sg130
S'13bef764-6074-11e2-8e6d-f0def14af2c8'
p902
sba(iclasses.clip
clip
p903
(dp904
g52
g53
sg54
I01
sg55
I00
sg56
(dp905
g58
(iclasses.keyframe
keyframe
p906
(dp907
g61
I0
sg62
F100
sg63
F100
sS'x'
F0
sS'y'
F0
sg64
F1
sg45
S'1a6bf77e-6074-11e2-8e6d-f0def14af2c8'
p908
sbsg66
(iclasses.keyframe
keyframe
p909
(dp910
g61
I-1
sg62
F100
sg63
F100
sS'x'
F0
sS'y'
F0
sg64
F1
sg45
S'1a6bff26-6074-11e2-8e6d-f0def14af2c8'
p911
sbssg70
F2
sg71
I00
sg72
I00
sg73
F1
sg74
I01
sg75
F2
sg76
F54.615000000000002
sg77
F40.5
sg78
F5612.21
sg79
I01
sg80
F1.24
sg81
F2
sg82
F300
sg832
I00
sg83
g163
sg85
I00
sg86
F1.24
sg87
I00
sg88
I00
sg89
F2
sg90
g47
sg91
I01
sg92
F0
sg93
(iclasses.files
OpenShotFile
p912
(dp913
g96
F14999
sg97
S''
sg98
I0
sg99
S'/home/mospina/thumbnail/7d62731c-5fb1-11e2-8e6d-f0def14af2c8_png_1.png'
p914
sg36
S'/home/mospina/manuel/studio/plaga/capitulo_01/storyboard/083.png'
p915
sg38
Nsg102
g103
sg104
I0
sg62
I720
sg105
g1
sg63
I1280
sg106
F300
sg107
F29.970029970029969
sg108
I1
sg109
S''
sg110
(F29.970029970029969
I0
tp916
sg112
S''
sg45
S'7d67e144-5fb1-11e2-8e6d-f0def14af2c8'
p917
sbsg114
I00
sg115
F100
sg116
(lp918
sg118
F0
sg119
F0
sg120
I00
sg121
S'/home/mospina/thumbnail/7d62731c-5fb1-11e2-8e6d-f0def14af2c8_png_1.png'
p919
sg24
S'083.png'
p920
sg124
F55.755366666666667
sg125
I1694
sg126
g163
sg128
I01
sg129
F1.24
sg130
S'1a6bed2e-6074-11e2-8e6d-f0def14af2c8'
p921
sba(iclasses.clip
clip
p922
(dp923
S'color'
p924
S'Gold'
p925
sS'moved'
p926
I01
sS'video_fade_out'
p927
I00
sS'keyframes'
p928
(dp929
S'start'
p930
(iclasses.keyframe
keyframe
p931
(dp932
g61
I0
sg62
F100
sg63
F100
sS'x'
F0
sS'y'
F0
sg64
F1
sg45
S'281f9af2-6366-11e2-8b72-f0def14af2c8'
p933
sbsS'end'
p934
(iclasses.keyframe
keyframe
p935
(dp936
g61
I-1
sg62
F100
sg63
F100
sS'x'
F0
sS'y'
F0
sg64
F1
sg45
S'281f9dfe-6366-11e2-8b72-f0def14af2c8'
p937
sbssS'video_fade_out_amount'
p938
F2
sS'audio_fade_out'
p939
I00
sS'reversed'
p940
I00
sS'speed'
p941
F1
sS'fill'
p942
I01
sS'audio_fade_in_amount'
p943
F2
sS'position_on_track'
p944
F55.854999999999997
sS'drag_y'
p945
F104.5
sS'drag_x'
p946
F5231.1733333333332
sS'play_audio'
p947
I01
sS'original_clip_out'
p948
F7
sS'audio_fade_out_amount'
p949
F2
sS'max_length'
p950
F300
sg832
I00
sS'valign'
p951
S'centre'
p952
sS'video_fade_in'
p953
I00
sS'original_length'
p954
F7
sS'audio_fade_in'
p955
I00
sS'request_show_properties'
p956
I00
sS'video_fade_in_amount'
p957
F2
sS'parent'
p958
g47
sS'composite'
p959
I01
sS'start_time'
p960
F0
sS'file_object'
p961
(iclasses.files
OpenShotFile
p962
(dp963
g96
F14999
sg97
S''
sg98
I0
sg99
S'/home/mospina/thumbnail/7d6931b6-5fb1-11e2-8e6d-f0def14af2c8_png_1.png'
p964
sg36
S'/home/mospina/manuel/studio/plaga/capitulo_01/storyboard/090.png'
p965
sg38
Nsg102
g103
sg104
I0
sg62
I720
sg105
g1
sg63
I1280
sg106
F300
sg107
F29.970029970029969
sg108
I1
sg109
S''
sg110
(F29.970029970029969
I0
tp966
sg112
S''
sg45
S'7d6f3dc2-5fb1-11e2-8e6d-f0def14af2c8'
p967
sbsS'distort'
p968
I00
sS'volume'
p969
F100
sS'effects'
p970
(lp971
sS'original_clip_in'
p972
F0
sS'rotation'
p973
F0
sS'is_timeline_scrolling'
p974
I00
sS'thumb_location'
p975
S'/home/mospina/thumbnail/7d6931b6-5fb1-11e2-8e6d-f0def14af2c8_png_1.png'
p976
sS'name'
p977
S'090.png'
p978
sS'original_start_pos'
p979
F52.015000000000001
sS'timeline_current_position'
p980
I0
sS'halign'
p981
g952
sS'play_video'
p982
I01
sS'end_time'
p983
F1.22
sS'unique_id'
p984
S'281f95ca-6366-11e2-8b72-f0def14af2c8'
p985
sba(iclasses.clip
clip
p986
(dp987
g924
g925
sg926
I01
sg927
I00
sg928
(dp988
g930
(iclasses.keyframe
keyframe
p989
(dp990
g61
I0
sg62
F100
sg63
F100
sS'x'
F0
sS'y'
F0
sg64
F1
sg45
S'2a47603a-6366-11e2-8b72-f0def14af2c8'
p991
sbsg934
(iclasses.keyframe
keyframe
p992
(dp993
g61
I-1
sg62
F100
sg63
F100
sS'x'
F0
sS'y'
F0
sg64
F1
sg45
S'2a476972-6366-11e2-8b72-f0def14af2c8'
p994
sbssg938
F2
sg939
I00
sg940
I00
sg941
F1
sg942
I01
sg943
F2
sg944
F57.075000000000003
sg945
F97.5
sg946
F5352.1733333333332
sg947
I01
sg948
F4.9199999999999999
sg949
F2
sg950
F300
sS'show_preview'
p995
I00
sg951
g952
sg953
I00
sg954
F4.9199999999999999
sg955
I00
sg956
I00
sg957
F2
sg958
g47
sg959
I01
sg960
F0
sg961
(iclasses.files
OpenShotFile
p996
(dp997
g96
F14999
sg97
S''
sg98
I0
sg99
S'/home/mospina/thumbnail/7d70a8b0-5fb1-11e2-8e6d-f0def14af2c8_png_1.png'
p998
sg36
S'/home/mospina/manuel/studio/plaga/capitulo_01/storyboard/091.png'
p999
sg38
Nsg102
g103
sg104
I0
sg62
I720
sg105
g1
sg63
I1280
sg106
F300
sg107
F29.970029970029969
sg108
I1
sg109
S''
sg110
(F29.970029970029969
I0
tp1000
sg112
S''
sg45
S'7d76eca2-5fb1-11e2-8e6d-f0def14af2c8'
p1001
sbsg968
I00
sg969
F100
sg970
(lp1002
sg972
F0
sg973
F0
sg974
I00
sg975
S'/home/mospina/thumbnail/7d70a8b0-5fb1-11e2-8e6d-f0def14af2c8_png_1.png'
p1003
sg977
S'091.png'
p1004
sg979
F59.015000000000001
sg980
I0
sg981
g952
sg982
I01
sg983
F1.22
sg984
S'2a4755fe-6366-11e2-8b72-f0def14af2c8'
p1005
sba(iclasses.clip
clip
p1006
(dp1007
g924
g925
sg926
I01
sg927
I00
sg928
(dp1008
g930
(iclasses.keyframe
keyframe
p1009
(dp1010
g61
I0
sg62
F100
sg63
F100
sS'x'
F0
sS'y'
F0
sg64
F1
sg45
S'3ba53c9e-6366-11e2-8b72-f0def14af2c8'
p1011
sbsg934
(iclasses.keyframe
keyframe
p1012
(dp1013
g61
I-1
sg62
F100
sg63
F100
sS'x'
F0
sS'y'
F0
sg64
F1
sg45
S'3ba54446-6366-11e2-8b72-f0def14af2c8'
p1014
sbssg938
F2
sg939
I00
sg940
I00
sg941
F1
sg942
I01
sg943
F2
sg944
F58.295000000000002
sg945
F100.5
sg946
F5478.1733333333332
sg947
I01
sg948
F1.2364436619718253
sg949
F2
sg950
F300
sg995
I00
sg951
g952
sg953
I00
sg954
F1.2364436619718253
sg955
I00
sg956
I00
sg957
F2
sg958
g47
sg959
I01
sg960
F0
sg961
(iclasses.files
OpenShotFile
p1015
(dp1016
g96
F14999
sg97
S''
sg98
I0
sg99
S'/home/mospina/thumbnail/7d786104-5fb1-11e2-8e6d-f0def14af2c8_png_1.png'
p1017
sg36
S'/home/mospina/manuel/studio/plaga/capitulo_01/storyboard/092.png'
p1018
sg38
Nsg102
g103
sg104
I0
sg62
I720
sg105
g1
sg63
I1280
sg106
F300
sg107
F29.970029970029969
sg108
I1
sg109
S''
sg110
(F29.970029970029969
I0
tp1019
sg112
S''
sg45
S'7d7e4736-5fb1-11e2-8e6d-f0def14af2c8'
p1020
sbsg968
I00
sg969
F100
sg970
(lp1021
sg972
F0
sg973
F0
sg974
I00
sg975
S'/home/mospina/thumbnail/7d786104-5fb1-11e2-8e6d-f0def14af2c8_png_1.png'
p1022
sg977
S'092.png'
p1023
sg979
F54.454999999999998
sg980
I1621
sg981
g952
sg982
I01
sg983
F1.2364436619718253
sg984
S'3ba53262-6366-11e2-8b72-f0def14af2c8'
p1024
sba(iclasses.clip
clip
p1025
(dp1026
g924
g925
sg926
I01
sg927
I00
sg928
(dp1027
g930
(iclasses.keyframe
keyframe
p1028
(dp1029
g61
I0
sg62
F100
sg63
F100
sS'x'
F0
sS'y'
F0
sg64
F1
sg45
S'45227944-6366-11e2-8b72-f0def14af2c8'
p1030
sbsg934
(iclasses.keyframe
keyframe
p1031
(dp1032
g61
I-1
sg62
F100
sg63
F100
sS'x'
F0
sS'y'
F0
sg64
F1
sg45
S'4522870e-6366-11e2-8b72-f0def14af2c8'
p1033
sbssg938
F2
sg939
I00
sg940
I00
sg941
F1
sg942
I01
sg943
F2
sg944
F59.531443661971828
sg945
F105.5
sg946
F5613.1733333333332
sg947
I01
sg948
F7
sg949
F2
sg950
F300
sg995
I00
sg951
g952
sg953
I00
sg954
F7
sg955
I00
sg956
I00
sg957
F2
sg958
g47
sg959
I01
sg960
F0
sg961
(iclasses.files
OpenShotFile
p1034
(dp1035
g96
F14999
sg97
S''
sg98
I0
sg99
S'/home/mospina/thumbnail/7d7f5072-5fb1-11e2-8e6d-f0def14af2c8_png_1.png'
p1036
sg36
S'/home/mospina/manuel/studio/plaga/capitulo_01/storyboard/093.png'
p1037
sg38
Nsg102
g103
sg104
I0
sg62
I720
sg105
g1
sg63
I1280
sg106
F300
sg107
F29.970029970029969
sg108
I1
sg109
S''
sg110
(F29.970029970029969
I0
tp1038
sg112
S''
sg45
S'7d84e35c-5fb1-11e2-8e6d-f0def14af2c8'
p1039
sbsg968
I00
sg969
F100
sg970
(lp1040
sg972
F0
sg973
F0
sg974
I00
sg975
S'/home/mospina/thumbnail/7d7f5072-5fb1-11e2-8e6d-f0def14af2c8_png_1.png'
p1041
sg977
S'093.png'
p1042
sg979
F61.625
sg980
I0
sg981
g952
sg982
I01
sg983
F1.23
sg984
S'45226c4c-6366-11e2-8b72-f0def14af2c8'
p1043
sba(iclasses.clip
clip
p1044
(dp1045
g924
g925
sg926
I01
sg927
I00
sg928
(dp1046
g930
(iclasses.keyframe
keyframe
p1047
(dp1048
g61
I0
sg62
F100
sg63
F100
sS'x'
F0
sS'y'
F0
sg64
F1
sg45
S'5b86feb2-6366-11e2-8b72-f0def14af2c8'
p1049
sbsg934
(iclasses.keyframe
keyframe
p1050
(dp1051
g61
I-1
sg62
F100
sg63
F100
sS'x'
F0
sS'y'
F0
sg64
F1
sg45
S'5b87098e-6366-11e2-8b72-f0def14af2c8'
p1052
sbssg938
F2
sg939
I00
sg940
I00
sg941
F1
sg942
I01
sg943
F2
sg944
F60.761443661971825
sg945
F109.5
sg946
F5729.1733333333323
sg947
I01
sg948
F7
sg949
F2
sg950
F300
sg832
I00
sg951
g952
sg953
I00
sg954
F7
sg955
I00
sg956
I00
sg957
F2
sg958
g47
sg959
I01
sg960
F0
sg961
(iclasses.files
OpenShotFile
p1053
(dp1054
g96
F14999
sg97
S''
sg98
I0
sg99
S'/home/mospina/thumbnail/7d863130-5fb1-11e2-8e6d-f0def14af2c8_png_1.png'
p1055
sg36
S'/home/mospina/manuel/studio/plaga/capitulo_01/storyboard/094.png'
p1056
sg38
Nsg102
g103
sg104
I0
sg62
I720
sg105
g1
sg63
I1280
sg106
F300
sg107
F29.970029970029969
sg108
I1
sg109
S''
sg110
(F29.970029970029969
I0
tp1057
sg112
S''
sg45
S'7d8c4188-5fb1-11e2-8e6d-f0def14af2c8'
p1058
sbsg968
I00
sg969
F100
sg970
(lp1059
sg972
F0
sg973
F0
sg974
I00
sg975
S'/home/mospina/thumbnail/7d863130-5fb1-11e2-8e6d-f0def14af2c8_png_1.png'
p1060
sg977
S'094.png'
p1061
sg979
F56.921443661971828
sg980
I0
sg981
g952
sg982
I01
sg983
F1.2335563380281747
sg984
S'5b86efc6-6366-11e2-8b72-f0def14af2c8'
p1062
sba(iclasses.clip
clip
p1063
(dp1064
g924
g925
sg926
I01
sg927
I00
sg928
(dp1065
g930
(iclasses.keyframe
keyframe
p1066
(dp1067
g61
I0
sg62
F100
sg63
F100
sS'x'
F0
sS'y'
F0
sg64
F1
sg45
S'5e8ce59a-6366-11e2-8b72-f0def14af2c8'
p1068
sbsg934
(iclasses.keyframe
keyframe
p1069
(dp1070
g61
I-1
sg62
F100
sg63
F100
sS'x'
F0
sS'y'
F0
sg64
F1
sg45
S'5e8ced60-6366-11e2-8b72-f0def14af2c8'
p1071
sbssg938
F2
sg939
I00
sg940
I00
sg941
F1
sg942
I01
sg943
F2
sg944
F61.994999999999997
sg945
F100.5
sg946
F5850.1733333333323
sg947
I01
sg948
F7
sg949
F2
sg950
F300
sg995
I00
sg951
g952
sg953
I00
sg954
F7
sg955
I00
sg956
I00
sg957
F2
sg958
g47
sg959
I01
sg960
F0
sg961
(iclasses.files
OpenShotFile
p1072
(dp1073
g96
F14999
sg97
S''
sg98
I0
sg99
S'/home/mospina/thumbnail/7d8dd0fc-5fb1-11e2-8e6d-f0def14af2c8_png_1.png'
p1074
sg36
S'/home/mospina/manuel/studio/plaga/capitulo_01/storyboard/095.png'
p1075
sg38
Nsg102
g103
sg104
I0
sg62
I720
sg105
g1
sg63
I1280
sg106
F300
sg107
F29.970029970029969
sg108
I1
sg109
S''
sg110
(F29.970029970029969
I0
tp1076
sg112
S''
sg45
S'7d953158-5fb1-11e2-8e6d-f0def14af2c8'
p1077
sbsg968
I00
sg969
F100
sg970
(lp1078
sg972
F0
sg973
F0
sg974
I00
sg975
S'/home/mospina/thumbnail/7d8dd0fc-5fb1-11e2-8e6d-f0def14af2c8_png_1.png'
p1079
sg977
S'095.png'
p1080
sg979
F58.155000000000001
sg980
I0
sg981
g952
sg982
I01
sg983
F1.22
sg984
S'5e8cda14-6366-11e2-8b72-f0def14af2c8'
p1081
sba(iclasses.clip
clip
p1082
(dp1083
g924
g925
sg926
I01
sg927
I00
sg928
(dp1084
g930
(iclasses.keyframe
keyframe
p1085
(dp1086
g61
I0
sg62
F100
sg63
F100
sS'x'
F0
sS'y'
F0
sg64
F1
sg45
S'72b3aa54-6366-11e2-8b72-f0def14af2c8'
p1087
sbsg934
(iclasses.keyframe
keyframe
p1088
(dp1089
g61
I-1
sg62
F100
sg63
F100
sS'x'
F0
sS'y'
F0
sg64
F1
sg45
S'72b3b1e8-6366-11e2-8b72-f0def14af2c8'
p1090
sbssg938
F2
sg939
I00
sg940
I00
sg941
F1
sg942
I01
sg943
F2
sg944
F63.215000000000003
sg945
F94.5
sg946
F5975.1733333333314
sg947
I01
sg948
F7
sg949
F2
sg950
F300
sg995
I00
sg951
g952
sg953
I00
sg954
F7
sg955
I00
sg956
I00
sg957
F2
sg958
g47
sg959
I01
sg960
F0
sg961
(iclasses.files
OpenShotFile
p1091
(dp1092
g96
F14999
sg97
S''
sg98
I0
sg99
S'/home/mospina/thumbnail/7d96ad62-5fb1-11e2-8e6d-f0def14af2c8_png_1.png'
p1093
sg36
S'/home/mospina/manuel/studio/plaga/capitulo_01/storyboard/096.png'
p1094
sg38
Nsg102
g103
sg104
I0
sg62
I720
sg105
g1
sg63
I1280
sg106
F300
sg107
F29.970029970029969
sg108
I1
sg109
S''
sg110
(F29.970029970029969
I0
tp1095
sg112
S''
sg45
S'7d9d1904-5fb1-11e2-8e6d-f0def14af2c8'
p1096
sbsg968
I00
sg969
F100
sg970
(lp1097
sg972
F0
sg973
F0
sg974
I00
sg975
S'/home/mospina/thumbnail/7d96ad62-5fb1-11e2-8e6d-f0def14af2c8_png_1.png'
p1098
sg977
S'096.png'
p1099
sg979
F65.155000000000001
sg980
I0
sg981
g952
sg982
I01
sg983
F1.23
sg984
S'72b3a022-6366-11e2-8b72-f0def14af2c8'
p1100
sba(iclasses.clip
clip
p1101
(dp1102
g924
g925
sg926
I01
sg927
I00
sg928
(dp1103
g930
(iclasses.keyframe
keyframe
p1104
(dp1105
g61
I0
sg62
F100
sg63
F100
sS'x'
F0
sS'y'
F0
sg64
F1
sg45
S'8dd30f00-6366-11e2-8b72-f0def14af2c8'
p1106
sbsg934
(iclasses.keyframe
keyframe
p1107
(dp1108
g61
I-1
sg62
F100
sg63
F100
sS'x'
F0
sS'y'
F0
sg64
F1
sg45
S'8dd316a8-6366-11e2-8b72-f0def14af2c8'
p1109
sbssg938
F2
sg939
I00
sg940
I00
sg941
F1
sg942
I01
sg943
F2
sg944
F64.444999999999993
sg945
F97.5
sg946
F6091.1733333333314
sg947
I01
sg948
F7
sg949
F2
sg950
F300
sg832
I00
sg951
g952
sg953
I00
sg954
F7
sg955
I00
sg956
I00
sg957
F2
sg958
g47
sg959
I01
sg960
F0
sg961
(iclasses.files
OpenShotFile
p1110
(dp1111
g96
F14999
sg97
S''
sg98
I0
sg99
S'/home/mospina/thumbnail/7d9ee0f4-5fb1-11e2-8e6d-f0def14af2c8_png_1.png'
p1112
sg36
S'/home/mospina/manuel/studio/plaga/capitulo_01/storyboard/100.png'
p1113
sg38
Nsg102
g103
sg104
I0
sg62
I720
sg105
g1
sg63
I1280
sg106
F300
sg107
F29.970029970029969
sg108
I1
sg109
S''
sg110
(F29.970029970029969
I0
tp1114
sg112
S''
sg45
S'7da4235c-5fb1-11e2-8e6d-f0def14af2c8'
p1115
sbsg968
I00
sg969
F100
sg970
(lp1116
sg972
F0
sg973
F0
sg974
I00
sg975
S'/home/mospina/thumbnail/7d9ee0f4-5fb1-11e2-8e6d-f0def14af2c8_png_1.png'
p1117
sg977
S'100.png'
p1118
sg979
F60.604999999999997
sg980
I0
sg981
g952
sg982
I01
sg983
F1.23
sg984
S'8dd304d8-6366-11e2-8b72-f0def14af2c8'
p1119
sba(iclasses.clip
clip
p1120
(dp1121
g924
g925
sg926
I01
sg927
I00
sg928
(dp1122
g930
(iclasses.keyframe
keyframe
p1123
(dp1124
g61
I0
sg62
F100
sg63
F100
sS'x'
F0
sS'y'
F0
sg64
F1
sg45
S'8fb41a3a-6366-11e2-8b72-f0def14af2c8'
p1125
sbsg934
(iclasses.keyframe
keyframe
p1126
(dp1127
g61
I-1
sg62
F100
sg63
F100
sS'x'
F0
sS'y'
F0
sg64
F1
sg45
S'8fb41e72-6366-11e2-8b72-f0def14af2c8'
p1128
sbssg938
F2
sg939
I00
sg940
I00
sg941
F1
sg942
I01
sg943
F2
sg944
F65.674999999999997
sg945
F97.5
sg946
F6228.1733333333314
sg947
I01
sg948
F1.23
sg949
F2
sg950
F300
sg995
I00
sg951
g952
sg953
I00
sg954
F1.23
sg955
I00
sg956
I00
sg957
F2
sg958
g47
sg959
I01
sg960
F0
sg961
(iclasses.files
OpenShotFile
p1129
(dp1130
g96
F14999
sg97
S''
sg98
I0
sg99
S'/home/mospina/thumbnail/7da57de2-5fb1-11e2-8e6d-f0def14af2c8_png_1.png'
p1131
sg36
S'/home/mospina/manuel/studio/plaga/capitulo_01/storyboard/101.png'
p1132
sg38
Nsg102
g103
sg104
I0
sg62
I720
sg105
g1
sg63
I1280
sg106
F300
sg107
F29.970029970029969
sg108
I1
sg109
S''
sg110
(F29.970029970029969
I0
tp1133
sg112
S''
sg45
S'7daae1c4-5fb1-11e2-8e6d-f0def14af2c8'
p1134
sbsg968
I00
sg969
F100
sg970
(lp1135
sg972
F0
sg973
F0
sg974
I00
sg975
S'/home/mospina/thumbnail/7da57de2-5fb1-11e2-8e6d-f0def14af2c8_png_1.png'
p1136
sg977
S'101.png'
p1137
sg979
F67.605000000000004
sg980
I0
sg981
g952
sg982
I01
sg983
F1.22
sg984
S'8fb412b0-6366-11e2-8b72-f0def14af2c8'
p1138
sba(iclasses.clip
clip
p1139
(dp1140
g924
g925
sg926
I01
sg927
I00
sg928
(dp1141
g930
(iclasses.keyframe
keyframe
p1142
(dp1143
g61
I0
sg62
F100
sg63
F100
sS'x'
F0
sS'y'
F0
sg64
F1
sg45
S'a2b8525e-6366-11e2-8b72-f0def14af2c8'
p1144
sbsg934
(iclasses.keyframe
keyframe
p1145
(dp1146
g61
I-1
sg62
F100
sg63
F100
sS'x'
F0
sS'y'
F0
sg64
F1
sg45
S'a2b85a10-6366-11e2-8b72-f0def14af2c8'
p1147
sbssg938
F2
sg939
I00
sg940
I00
sg941
F1
sg942
I01
sg943
F2
sg944
F66.894999999999996
sg945
F95.5
sg946
F6337.1733333333304
sg947
I01
sg948
F7
sg949
F2
sg950
F300
sg832
I00
sg951
g952
sg953
I00
sg954
F7
sg955
I00
sg956
I00
sg957
F2
sg958
g47
sg959
I01
sg960
F0
sg961
(iclasses.files
OpenShotFile
p1148
(dp1149
g96
F14999
sg97
S''
sg98
I0
sg99
S'/home/mospina/thumbnail/7dac8cae-5fb1-11e2-8e6d-f0def14af2c8_png_1.png'
p1150
sg36
S'/home/mospina/manuel/studio/plaga/capitulo_01/storyboard/110.png'
p1151
sg38
Nsg102
g103
sg104
I0
sg62
I720
sg105
g1
sg63
I1280
sg106
F300
sg107
F29.970029970029969
sg108
I1
sg109
S''
sg110
(F29.970029970029969
I0
tp1152
sg112
S''
sg45
S'7db28302-5fb1-11e2-8e6d-f0def14af2c8'
p1153
sbsg968
I00
sg969
F100
sg970
(lp1154
sg972
F0
sg973
F0
sg974
I00
sg975
S'/home/mospina/thumbnail/7dac8cae-5fb1-11e2-8e6d-f0def14af2c8_png_1.png'
p1155
sg977
S'110.png'
p1156
sg979
F63.055
sg980
I0
sg981
g952
sg982
I01
sg983
F1.22
sg984
S'a2b84822-6366-11e2-8b72-f0def14af2c8'
p1157
sba(iclasses.clip
clip
p1158
(dp1159
g924
g925
sg926
I01
sg927
I00
sg928
(dp1160
g930
(iclasses.keyframe
keyframe
p1161
(dp1162
g61
I0
sg62
F100
sg63
F100
sS'x'
F0
sS'y'
F0
sg64
F1
sg45
S'a47d2dd0-6366-11e2-8b72-f0def14af2c8'
p1163
sbsg934
(iclasses.keyframe
keyframe
p1164
(dp1165
g61
I-1
sg62
F100
sg63
F100
sS'x'
F0
sS'y'
F0
sg64
F1
sg45
S'a47d3578-6366-11e2-8b72-f0def14af2c8'
p1166
sbssg938
F2
sg939
I00
sg940
I00
sg941
F1
sg942
I01
sg943
F2
sg944
F68.114999999999995
sg945
F88.5
sg946
F6441.1733333333323
sg947
I01
sg948
F7
sg949
F2
sg950
F300
sg995
I00
sg951
g952
sg953
I00
sg954
F7
sg955
I00
sg956
I00
sg957
F2
sg958
g47
sg959
I01
sg960
F0
sg961
(iclasses.files
OpenShotFile
p1167
(dp1168
g96
F14999
sg97
S''
sg98
I0
sg99
S'/home/mospina/thumbnail/7db37e9c-5fb1-11e2-8e6d-f0def14af2c8_png_1.png'
p1169
sg36
S'/home/mospina/manuel/studio/plaga/capitulo_01/storyboard/111.png'
p1170
sg38
Nsg102
g103
sg104
I0
sg62
I720
sg105
g1
sg63
I1280
sg106
F300
sg107
F29.970029970029969
sg108
I1
sg109
S''
sg110
(F29.970029970029969
I0
tp1171
sg112
S''
sg45
S'7db9e5de-5fb1-11e2-8e6d-f0def14af2c8'
p1172
sbsg968
I00
sg969
F100
sg970
(lp1173
sg972
F0
sg973
F0
sg974
I00
sg975
S'/home/mospina/thumbnail/7db37e9c-5fb1-11e2-8e6d-f0def14af2c8_png_1.png'
p1174
sg977
S'111.png'
p1175
sg979
F64.275000000000006
sg980
I0
sg981
g952
sg982
I01
sg983
F1.2299999999999909
sg984
S'a47d229a-6366-11e2-8b72-f0def14af2c8'
p1176
sba(iclasses.clip
clip
p1177
(dp1178
g924
g925
sg926
I01
sg927
I00
sg928
(dp1179
g930
(iclasses.keyframe
keyframe
p1180
(dp1181
g61
I0
sg62
F100
sg63
F100
sS'x'
F0
sS'y'
F0
sg64
F1
sg45
S'b71e7dea-6366-11e2-8b72-f0def14af2c8'
p1182
sbsg934
(iclasses.keyframe
keyframe
p1183
(dp1184
g61
I-1
sg62
F100
sg63
F100
sS'x'
F0
sS'y'
F0
sg64
F1
sg45
S'b71e8588-6366-11e2-8b72-f0def14af2c8'
p1185
sbssg938
F2
sg939
I00
sg940
I00
sg941
F1
sg942
I01
sg943
F2
sg944
F69.33499999999998
sg945
F104.5
sg946
F6584.1733333333323
sg947
I01
sg948
F7
sg949
F2
sg950
F300
sg995
I00
sg951
g952
sg953
I00
sg954
F7
sg955
I00
sg956
I00
sg957
F2
sg958
g47
sg959
I01
sg960
F0
sg961
(iclasses.files
OpenShotFile
p1186
(dp1187
g96
F14999
sg97
S''
sg98
I0
sg99
S'/home/mospina/thumbnail/7dbaed9e-5fb1-11e2-8e6d-f0def14af2c8_png_1.png'
p1188
sg36
S'/home/mospina/manuel/studio/plaga/capitulo_01/storyboard/120.png'
p1189
sg38
Nsg102
g103
sg104
I0
sg62
I720
sg105
g1
sg63
I1280
sg106
F300
sg107
F29.970029970029969
sg108
I1
sg109
S''
sg110
(F29.970029970029969
I0
tp1190
sg112
S''
sg45
S'7dc1a706-5fb1-11e2-8e6d-f0def14af2c8'
p1191
sbsg968
I00
sg969
F100
sg970
(lp1192
sg972
F0
sg973
F0
sg974
I00
sg975
S'/home/mospina/thumbnail/7dbaed9e-5fb1-11e2-8e6d-f0def14af2c8_png_1.png'
p1193
sg977
S'120.png'
p1194
sg979
F65.504999999999995
sg980
I376
sg981
g952
sg982
I01
sg983
F1.23
sg984
S'b71e73b8-6366-11e2-8b72-f0def14af2c8'
p1195
sba(iclasses.clip
clip
p1196
(dp1197
g924
g925
sg926
I01
sg927
I00
sg928
(dp1198
g930
(iclasses.keyframe
keyframe
p1199
(dp1200
g61
I0
sg62
F100
sg63
F100
sS'x'
F0
sS'y'
F0
sg64
F1
sg45
S'9c297b1c-636a-11e2-8b72-f0def14af2c8'
p1201
sbsg934
(iclasses.keyframe
keyframe
p1202
(dp1203
g61
I-1
sg62
F100
sg63
F100
sS'x'
F0
sS'y'
F0
sg64
F1
sg45
S'9c2982c4-636a-11e2-8b72-f0def14af2c8'
p1204
sbssg938
F2
sg939
I00
sg940
I00
sg941
F1
sg942
I01
sg943
F2
sg944
F70.564999999999984
sg945
F99.5
sg946
F6714.5000000000018
sg947
I01
sg948
F7
sg949
F2
sg950
F300
sg832
I00
sg951
g952
sg953
I00
sg954
F7
sg955
I00
sg956
I00
sg957
F2
sg958
g47
sg959
I01
sg960
F0
sg961
(iclasses.files
OpenShotFile
p1205
(dp1206
g96
F14999
sg97
S''
sg98
I0
sg99
S'/home/mospina/thumbnail/7dc3002e-5fb1-11e2-8e6d-f0def14af2c8_png_1.png'
p1207
sg36
S'/home/mospina/manuel/studio/plaga/capitulo_01/storyboard/121.png'
p1208
sg38
Nsg102
g103
sg104
I0
sg62
I720
sg105
g1
sg63
I1280
sg106
F300
sg107
F29.970029970029969
sg108
I1
sg109
S''
sg110
(F29.970029970029969
I0
tp1209
sg112
S''
sg45
S'7dc97a3a-5fb1-11e2-8e6d-f0def14af2c8'
p1210
sbsg968
I00
sg969
F100
sg970
(lp1211
sg972
F0
sg973
F0
sg974
I00
sg975
S'/home/mospina/thumbnail/7dc3002e-5fb1-11e2-8e6d-f0def14af2c8_png_1.png'
p1212
sg977
S'121.png'
p1213
sg979
F66.734999999999999
sg980
I1997
sg981
g952
sg982
I01
sg983
F1.22
sg984
S'9c297068-636a-11e2-8b72-f0def14af2c8'
p1214
sba(iclasses.clip
clip
p1215
(dp1216
g924
g925
sg926
I01
sg927
I00
sg928
(dp1217
g930
(iclasses.keyframe
keyframe
p1218
(dp1219
g61
I0
sg62
F100
sg63
F100
sS'x'
F0
sS'y'
F0
sg64
F1
sg45
S'ad4f26e4-636a-11e2-8b72-f0def14af2c8'
p1220
sbsg934
(iclasses.keyframe
keyframe
p1221
(dp1222
g61
I-1
sg62
F100
sg63
F100
sS'x'
F0
sS'y'
F0
sg64
F1
sg45
S'ad4f2e96-636a-11e2-8b72-f0def14af2c8'
p1223
sbssg938
F2
sg939
I00
sg940
I00
sg941
F1
sg942
I01
sg943
F2
sg944
F71.784999999999982
sg945
F100.5
sg946
F6825.5000000000018
sg947
I01
sg948
F7
sg949
F2
sg950
F300
sg832
I00
sg951
g952
sg953
I00
sg954
F7
sg955
I00
sg956
I00
sg957
F2
sg958
g47
sg959
I01
sg960
F0
sg961
(iclasses.files
OpenShotFile
p1224
(dp1225
g96
F14999
sg97
S''
sg98
I0
sg99
S'/home/mospina/thumbnail/7dcb06ac-5fb1-11e2-8e6d-f0def14af2c8_png_1.png'
p1226
sg36
S'/home/mospina/manuel/studio/plaga/capitulo_01/storyboard/122.png'
p1227
sg38
Nsg102
g103
sg104
I0
sg62
I720
sg105
g1
sg63
I1280
sg106
F300
sg107
F29.970029970029969
sg108
I1
sg109
S''
sg110
(F29.970029970029969
I0
tp1228
sg112
S''
sg45
S'7dd1418e-5fb1-11e2-8e6d-f0def14af2c8'
p1229
sbsg968
I00
sg969
F100
sg970
(lp1230
sg972
F0
sg973
F0
sg974
I00
sg975
S'/home/mospina/thumbnail/7dcb06ac-5fb1-11e2-8e6d-f0def14af2c8_png_1.png'
p1231
sg977
S'122.png'
p1232
sg979
F67.954999999999998
sg980
I1997
sg981
g952
sg982
I01
sg983
F1.23
sg984
S'ad4f1c4e-636a-11e2-8b72-f0def14af2c8'
p1233
sba(iclasses.clip
clip
p1234
(dp1235
g924
g925
sg926
I01
sg927
I00
sg928
(dp1236
g930
(iclasses.keyframe
keyframe
p1237
(dp1238
g61
I0
sg62
F100
sg63
F100
sS'x'
F0
sS'y'
F0
sg64
F1
sg45
S'b900576a-636a-11e2-8b72-f0def14af2c8'
p1239
sbsg934
(iclasses.keyframe
keyframe
p1240
(dp1241
g61
I-1
sg62
F100
sg63
F100
sS'x'
F0
sS'y'
F0
sg64
F1
sg45
S'b9005f12-636a-11e2-8b72-f0def14af2c8'
p1242
sbssg938
F2
sg939
I00
sg940
I00
sg941
F1
sg942
I01
sg943
F2
sg944
F73.014999999999986
sg945
F97.5
sg946
F6966.463333333335
sg947
I01
sg948
F7
sg949
F2
sg950
F300
sg832
I00
sg951
g952
sg953
I00
sg954
F7
sg955
I00
sg956
I00
sg957
F2
sg958
g47
sg959
I01
sg960
F0
sg961
(iclasses.files
OpenShotFile
p1243
(dp1244
g96
F14999
sg97
S''
sg98
I0
sg99
S'/home/mospina/thumbnail/7dd2cf68-5fb1-11e2-8e6d-f0def14af2c8_png_1.png'
p1245
sg36
S'/home/mospina/manuel/studio/plaga/capitulo_01/storyboard/123.png'
p1246
sg38
Nsg102
g103
sg104
I0
sg62
I720
sg105
g1
sg63
I1280
sg106
F300
sg107
F29.970029970029969
sg108
I1
sg109
S''
sg110
(F29.970029970029969
I0
tp1247
sg112
S''
sg45
S'7dd8baf4-5fb1-11e2-8e6d-f0def14af2c8'
p1248
sbsg968
I00
sg969
F100
sg970
(lp1249
sg972
F0
sg973
F0
sg974
I00
sg975
S'/home/mospina/thumbnail/7dd2cf68-5fb1-11e2-8e6d-f0def14af2c8_png_1.png'
p1250
sg977
S'123.png'
p1251
sg979
F69.185000000000002
sg980
I1997
sg981
g952
sg982
I01
sg983
F1.24
sg984
S'b9004d06-636a-11e2-8b72-f0def14af2c8'
p1252
sba(iclasses.clip
clip
p1253
(dp1254
g924
g925
sg926
I00
sg927
I00
sg928
(dp1255
g930
(iclasses.keyframe
keyframe
p1256
(dp1257
g61
I0
sg62
F100
sg63
F100
sS'x'
F0
sS'y'
F0
sg64
F1
sg45
S'e7aa4a1c-636a-11e2-8b72-f0def14af2c8'
p1258
sbsg934
(iclasses.keyframe
keyframe
p1259
(dp1260
g61
I-1
sg62
F100
sg63
F100
sS'x'
F0
sS'y'
F0
sg64
F1
sg45
S'e7aa51ba-636a-11e2-8b72-f0def14af2c8'
p1261
sbssg938
F2
sg939
I00
sg940
I00
sg941
F1
sg942
I01
sg943
F2
sg944
F74.254999999999981
sg945
F99.5
sg946
F7071.5000000000018
sg947
I01
sg948
F1.25
sg949
F2
sg950
F300
sg832
I00
sg951
g952
sg953
I00
sg954
F1.25
sg955
I00
sg956
I00
sg957
F2
sg958
g47
sg959
I01
sg960
F0
sg961
(iclasses.files
OpenShotFile
p1262
(dp1263
g96
F14999
sg97
S''
sg98
I0
sg99
S'/home/mospina/thumbnail/7dda6138-5fb1-11e2-8e6d-f0def14af2c8_png_1.png'
p1264
sg36
S'/home/mospina/manuel/studio/plaga/capitulo_01/storyboard/130.png'
p1265
sg38
Nsg102
g103
sg104
I0
sg62
I719
sg105
g1
sg63
I1279
sg106
F300
sg107
F29.970029970029969
sg108
I1
sg109
S''
sg110
(F29.970029970029969
I0
tp1266
sg112
S''
sg45
S'7de146c4-5fb1-11e2-8e6d-f0def14af2c8'
p1267
sbsg968
I00
sg969
F100
sg970
(lp1268
sg972
F0
sg973
F0
sg974
I00
sg975
S'/home/mospina/thumbnail/7dda6138-5fb1-11e2-8e6d-f0def14af2c8_png_1.png'
p1269
sg977
S'130.png'
p1270
sg979
F70.424999999999997
sg980
I1997
sg981
g952
sg982
I01
sg983
F1.23
sg984
S'e7aa3fc2-636a-11e2-8b72-f0def14af2c8'
p1271
sba(iclasses.clip
clip
p1272
(dp1273
g924
g925
sg926
I01
sg927
I00
sg928
(dp1274
g930
(iclasses.keyframe
keyframe
p1275
(dp1276
g61
I0
sg62
F100
sg63
F100
sS'x'
F0
sS'y'
F0
sg64
F1
sg45
S'eea6a374-636a-11e2-8b72-f0def14af2c8'
p1277
sbsg934
(iclasses.keyframe
keyframe
p1278
(dp1279
g61
I-1
sg62
F100
sg63
F100
sS'x'
F0
sS'y'
F0
sg64
F1
sg45
S'eea6ab12-636a-11e2-8b72-f0def14af2c8'
p1280
sbssg938
F2
sg939
I00
sg940
I00
sg941
F1
sg942
I01
sg943
F2
sg944
F75.484999999999985
sg945
F94.5
sg946
F7201.4633333333331
sg947
I01
sg948
F7
sg949
F2
sg950
F300
sg995
I00
sg951
g952
sg953
I00
sg954
F7
sg955
I00
sg956
I00
sg957
F2
sg958
g47
sg959
I01
sg960
F0
sg961
(iclasses.files
OpenShotFile
p1281
(dp1282
g96
F14999
sg97
S''
sg98
I0
sg99
S'/home/mospina/thumbnail/7de2f924-5fb1-11e2-8e6d-f0def14af2c8_png_1.png'
p1283
sg36
S'/home/mospina/manuel/studio/plaga/capitulo_01/storyboard/140.png'
p1284
sg38
Nsg102
g103
sg104
I0
sg62
I719
sg105
g1
sg63
I1279
sg106
F300
sg107
F29.970029970029969
sg108
I1
sg109
S''
sg110
(F29.970029970029969
I0
tp1285
sg112
S''
sg45
S'7de9709c-5fb1-11e2-8e6d-f0def14af2c8'
p1286
sbsg968
I00
sg969
F100
sg970
(lp1287
sg972
F0
sg973
F0
sg974
I00
sg975
S'/home/mospina/thumbnail/7de2f924-5fb1-11e2-8e6d-f0def14af2c8_png_1.png'
p1288
sg977
S'140.png'
p1289
sg979
F71.674999999999997
sg980
I1997
sg981
g952
sg982
I01
sg983
F1.23
sg984
S'eea69942-636a-11e2-8b72-f0def14af2c8'
p1290
sba(iclasses.clip
clip
p1291
(dp1292
g924
g925
sg926
I01
sg927
I00
sg928
(dp1293
g930
(iclasses.keyframe
keyframe
p1294
(dp1295
g61
I0
sg62
F100
sg63
F100
sS'x'
F0
sS'y'
F0
sg64
F1
sg45
S'e79292a4-636b-11e2-8b72-f0def14af2c8'
p1296
sbsg934
(iclasses.keyframe
keyframe
p1297
(dp1298
g61
I-1
sg62
F100
sg63
F100
sS'x'
F0
sS'y'
F0
sg64
F1
sg45
S'e7929a38-636b-11e2-8b72-f0def14af2c8'
p1299
sbssg938
F2
sg939
I00
sg940
I00
sg941
F1
sg942
I01
sg943
F2
sg944
F76.714999999999975
sg945
F94.5
sg946
F7327.463333333334
sg947
I01
sg948
F6.7199999999999909
sg949
F2
sg950
F300
sg832
I00
sg951
g952
sg953
I00
sg954
F6.7199999999999909
sg955
I00
sg956
I00
sg957
F2
sg958
g47
sg959
I01
sg960
F0
sg961
(iclasses.files
OpenShotFile
p1300
(dp1301
g96
F14999
sg97
S''
sg98
I0
sg99
S'/home/mospina/thumbnail/7deb1f8c-5fb1-11e2-8e6d-f0def14af2c8_png_1.png'
p1302
sg36
S'/home/mospina/manuel/studio/plaga/capitulo_01/storyboard/141.png'
p1303
sg38
Nsg102
g103
sg104
I0
sg62
I719
sg105
g1
sg63
I1279
sg106
F300
sg107
F29.970029970029969
sg108
I1
sg109
S''
sg110
(F29.970029970029969
I0
tp1304
sg112
S''
sg45
S'7df15a00-5fb1-11e2-8e6d-f0def14af2c8'
p1305
sbsg968
I00
sg969
F100
sg970
(lp1306
sg972
F0
sg973
F0
sg974
I00
sg975
S'/home/mospina/thumbnail/7deb1f8c-5fb1-11e2-8e6d-f0def14af2c8_png_1.png'
p1307
sg977
S'141.png'
p1308
sg979
F72.885000000000005
sg980
I1997
sg981
g952
sg982
I01
sg983
F1.2399999999999909
sg984
S'e79288ae-636b-11e2-8b72-f0def14af2c8'
p1309
sba(iclasses.clip
clip
p1310
(dp1311
g924
g925
sg926
I01
sg927
I00
sg928
(dp1312
g930
(iclasses.keyframe
keyframe
p1313
(dp1314
g61
I0
sg62
F100
sg63
F100
sS'x'
F0
sS'y'
F0
sg64
F1
sg45
S'f292ba80-636b-11e2-8b72-f0def14af2c8'
p1315
sbsg934
(iclasses.keyframe
keyframe
p1316
(dp1317
g61
I-1
sg62
F100
sg63
F100
sS'x'
F0
sS'y'
F0
sg64
F1
sg45
S'f292bdbe-636b-11e2-8b72-f0def14af2c8'
p1318
sbssg938
F2
sg939
I00
sg940
I00
sg941
F1
sg942
I01
sg943
F2
sg944
F77.95499999999997
sg945
F100.5
sg946
F7460.4633333333331
sg947
I01
sg948
F5.4699999999999998
sg949
F2
sg950
F300
sg832
I00
sg951
g952
sg953
I00
sg954
F5.4699999999999998
sg955
I00
sg956
I00
sg957
F2
sg958
g47
sg959
I01
sg960
F0
sg961
(iclasses.files
OpenShotFile
p1319
(dp1320
g96
F14999
sg97
S''
sg98
I0
sg99
S'/home/mospina/thumbnail/7df2d8bc-5fb1-11e2-8e6d-f0def14af2c8_png_1.png'
p1321
sg36
S'/home/mospina/manuel/studio/plaga/capitulo_01/storyboard/142.png'
p1322
sg38
Nsg102
g103
sg104
I0
sg62
I719
sg105
g1
sg63
I1279
sg106
F300
sg107
F29.970029970029969
sg108
I1
sg109
S''
sg110
(F29.970029970029969
I0
tp1323
sg112
S''
sg45
S'7df9b286-5fb1-11e2-8e6d-f0def14af2c8'
p1324
sbsg968
I00
sg969
F100
sg970
(lp1325
sg972
F0
sg973
F0
sg974
I00
sg975
S'/home/mospina/thumbnail/7df2d8bc-5fb1-11e2-8e6d-f0def14af2c8_png_1.png'
p1326
sg977
S'142.png'
p1327
sg979
F74.125
sg980
I1997
sg981
g952
sg982
I01
sg983
F1.24
sg984
S'f292b4d6-636b-11e2-8b72-f0def14af2c8'
p1328
sba(iclasses.clip
clip
p1329
(dp1330
g924
g925
sg926
I01
sg927
I00
sg928
(dp1331
g930
(iclasses.keyframe
keyframe
p1332
(dp1333
g61
I0
sg62
F100
sg63
F100
sS'x'
F0
sS'y'
F0
sg64
F1
sg45
S'fb0fb078-636b-11e2-8b72-f0def14af2c8'
p1334
sbsg934
(iclasses.keyframe
keyframe
p1335
(dp1336
g61
I-1
sg62
F100
sg63
F100
sS'x'
F0
sS'y'
F0
sg64
F1
sg45
S'fb0fb9a6-636b-11e2-8b72-f0def14af2c8'
p1337
sbssg938
F2
sg939
I00
sg940
I00
sg941
F1
sg942
I01
sg943
F2
sg944
F79.194999999999979
sg945
F92.5
sg946
F7563.4633333333322
sg947
I01
sg948
F4.3000000000000087
sg949
F2
sg950
F300
sg832
I00
sg951
g952
sg953
I00
sg954
F4.3000000000000087
sg955
I00
sg956
I00
sg957
F2
sg958
g47
sg959
I01
sg960
F0
sg961
(iclasses.files
OpenShotFile
p1338
(dp1339
g96
F14999
sg97
S''
sg98
I0
sg99
S'/home/mospina/thumbnail/7dfb62f2-5fb1-11e2-8e6d-f0def14af2c8_png_1.png'
p1340
sg36
S'/home/mospina/manuel/studio/plaga/capitulo_01/storyboard/143.png'
p1341
sg38
Nsg102
g103
sg104
I0
sg62
I719
sg105
g1
sg63
I1279
sg106
F300
sg107
F29.970029970029969
sg108
I1
sg109
S''
sg110
(F29.970029970029969
I0
tp1342
sg112
S''
sg45
S'7e01ad92-5fb1-11e2-8e6d-f0def14af2c8'
p1343
sbsg968
I00
sg969
F100
sg970
(lp1344
sg972
F0
sg973
F0
sg974
I00
sg975
S'/home/mospina/thumbnail/7dfb62f2-5fb1-11e2-8e6d-f0def14af2c8_png_1.png'
p1345
sg977
S'143.png'
p1346
sg979
F75.364999999999995
sg980
I1997
sg981
g952
sg982
I01
sg983
F1.2300000000000091
sg984
S'fb0fa52e-636b-11e2-8b72-f0def14af2c8'
p1347
sba(iclasses.clip
clip
p1348
(dp1349
g924
g925
sg926
I01
sg927
I00
sg928
(dp1350
g930
(iclasses.keyframe
keyframe
p1351
(dp1352
g61
I0
sg62
F100
sg63
F100
sS'x'
F0
sS'y'
F0
sg64
F1
sg45
S'34a7f00c-6385-11e2-8b72-f0def14af2c8'
p1353
sbsg934
(iclasses.keyframe
keyframe
p1354
(dp1355
g61
I-1
sg62
F100
sg63
F100
sS'x'
F0
sS'y'
F0
sg64
F1
sg45
S'34a7f7c8-6385-11e2-8b72-f0def14af2c8'
p1356
sbssg938
F2
sg939
I00
sg940
I00
sg941
F1
sg942
I01
sg943
F2
sg944
F80.424999999999997
sg945
F95.5
sg946
F7686.4633333333331
sg947
I01
sg948
F7
sg949
F2
sg950
F300
sg832
I00
sg951
g952
sg953
I00
sg954
F7
sg955
I00
sg956
I00
sg957
F2
sg958
g47
sg959
I01
sg960
F0
sg961
(iclasses.files
OpenShotFile
p1357
(dp1358
g96
F14999
sg97
S''
sg98
I0
sg99
S'/home/mospina/thumbnail/7e02ced4-5fb1-11e2-8e6d-f0def14af2c8_png_1.png'
p1359
sg36
S'/home/mospina/manuel/studio/plaga/capitulo_01/storyboard/150.png'
p1360
sg38
Nsg102
g103
sg104
I0
sg62
I719
sg105
g1
sg63
I1279
sg106
F300
sg107
F29.970029970029969
sg108
I1
sg109
S''
sg110
(F29.970029970029969
I0
tp1361
sg112
S''
sg45
S'7e091f6e-5fb1-11e2-8e6d-f0def14af2c8'
p1362
sbsg968
I00
sg969
F100
sg970
(lp1363
sg972
F0
sg973
F0
sg974
I00
sg975
S'/home/mospina/thumbnail/7e02ced4-5fb1-11e2-8e6d-f0def14af2c8_png_1.png'
p1364
sg977
S'150.png'
p1365
sg979
F76.594999999999999
sg980
I1997
sg981
g952
sg982
I01
sg983
F1.23
sg984
S'34a7e5d0-6385-11e2-8b72-f0def14af2c8'
p1366
sba(iclasses.clip
clip
p1367
(dp1368
g924
g925
sg926
I01
sg927
I00
sg928
(dp1369
g930
(iclasses.keyframe
keyframe
p1370
(dp1371
g61
I0
sg62
F100
sg63
F100
sS'x'
F0
sS'y'
F0
sg64
F1
sg45
S'38c43754-6385-11e2-8b72-f0def14af2c8'
p1372
sbsg934
(iclasses.keyframe
keyframe
p1373
(dp1374
g61
I-1
sg62
F100
sg63
F100
sS'x'
F0
sS'y'
F0
sg64
F1
sg45
S'38c43ef2-6385-11e2-8b72-f0def14af2c8'
p1375
sbssg938
F2
sg939
I00
sg940
I00
sg941
F1
sg942
I01
sg943
F2
sg944
F81.655000000000001
sg945
F87.5
sg946
F7804.4633333333331
sg947
I01
sg948
F7
sg949
F2
sg950
F300
sg832
I00
sg951
g952
sg953
I00
sg954
F7
sg955
I00
sg956
I00
sg957
F2
sg958
g47
sg959
I01
sg960
F0
sg961
(iclasses.files
OpenShotFile
p1376
(dp1377
g96
F14999
sg97
S''
sg98
I0
sg99
S'/home/mospina/thumbnail/7e0a4402-5fb1-11e2-8e6d-f0def14af2c8_png_1.png'
p1378
sg36
S'/home/mospina/manuel/studio/plaga/capitulo_01/storyboard/151.png'
p1379
sg38
Nsg102
g103
sg104
I0
sg62
I719
sg105
g1
sg63
I1279
sg106
F300
sg107
F29.970029970029969
sg108
I1
sg109
S''
sg110
(F29.970029970029969
I0
tp1380
sg112
S''
sg45
S'7e0fc27e-5fb1-11e2-8e6d-f0def14af2c8'
p1381
sbsg968
I00
sg969
F100
sg970
(lp1382
sg972
F0
sg973
F0
sg974
I00
sg975
S'/home/mospina/thumbnail/7e0a4402-5fb1-11e2-8e6d-f0def14af2c8_png_1.png'
p1383
sg977
S'151.png'
p1384
sg979
F77.825000000000003
sg980
I1997
sg981
g952
sg982
I01
sg983
F1.23
sg984
S'38c42d0e-6385-11e2-8b72-f0def14af2c8'
p1385
sbasg36
S'Track 2'
p1386
sg38
g20
sg39
I01
sg40
I71
sg41
I01
sg42
I130
sS'x'
I10
sg43
(lp1387
sg45
S'd9953dfa-5fb0-11e2-8e6d-f0def14af2c8'
p1388
sba(iclasses.track
track
p1389
(dp1390
g34
(lp1391
(iclasses.clip
clip
p1392
(dp1393
S'color'
p1394
S'Gold'
p1395
sS'moved'
p1396
I01
sS'video_fade_out'
p1397
I00
sS'keyframes'
p1398
(dp1399
S'start'
p1400
(iclasses.keyframe
keyframe
p1401
(dp1402
g61
I0
sg62
F100
sg63
F100
sS'x'
F0
sS'y'
F0
sg64
F1
sg45
S'985d7ee4-6530-11e2-a5e4-f0def14af2c8'
p1403
sbsS'end'
p1404
(iclasses.keyframe
keyframe
p1405
(dp1406
g61
I-1
sg62
F100
sg63
F100
sS'x'
F0
sS'y'
F0
sg64
F1
sg45
S'985d89d4-6530-11e2-a5e4-f0def14af2c8'
p1407
sbssS'video_fade_out_amount'
p1408
F2
sS'audio_fade_out'
p1409
I00
sS'reversed'
p1410
I00
sS'speed'
p1411
F1
sS'fill'
p1412
I01
sS'audio_fade_in_amount'
p1413
F2
sS'position_on_track'
p1414
F35.197600000000001
sS'drag_y'
p1415
F165.5
sS'drag_x'
p1416
F3150.5
sS'play_audio'
p1417
I01
sS'audio_fade_out_amount'
p1418
F2
sS'max_length'
p1419
F6.4064000000000005
sg832
I00
sS'valign'
p1420
S'centre'
p1421
sS'video_fade_in'
p1422
I00
sS'audio_fade_in'
p1423
I00
sS'request_show_properties'
p1424
I00
sS'video_fade_in_amount'
p1425
F2
sS'parent'
p1426
g1389
sS'composite'
p1427
I01
sS'start_time'
p1428
F0
sS'file_object'
p1429
(iclasses.files
OpenShotFile
p1430
(dp1431
g96
F191
sg97
S'MP3 (MPEG audio layer 3)'
p1432
sg98
I1
sg99
S'/home/mospina/thumbnail/5a990124-652f-11e2-a5e4-f0def14af2c8_mp3_1.png'
p1433
sg36
S'/home/mospina/manuel/studio/plaga/capitulo_01/sound/010.mp3'
p1434
sg38
Nsg102
S'audio'
p1435
sg104
I44100
sg62
I0
sg105
g1
sg63
I0
sg106
F6.4064000000000005
sg107
F29.970029970029969
sg108
I1
sg109
S''
sg110
(F29.970029970029969
I0
tp1436
sg112
S''
sg45
S'5a9e186c-652f-11e2-a5e4-f0def14af2c8'
p1437
sbsS'distort'
p1438
I00
sS'volume'
p1439
F100
sS'effects'
p1440
(lp1441
sS'rotation'
p1442
F0
sS'is_timeline_scrolling'
p1443
I00
sS'thumb_location'
p1444
S''
sS'name'
p1445
S'010.mp3'
p1446
sS'halign'
p1447
g1421
sS'play_video'
p1448
I01
sS'end_time'
p1449
F6.4064000000000005
sS'unique_id'
p1450
S'985d70ca-6530-11e2-a5e4-f0def14af2c8'
p1451
sba(iclasses.clip
clip
p1452
(dp1453
g1394
g1395
sg1396
I00
sg1397
I00
sg1398
(dp1454
g1400
(iclasses.keyframe
keyframe
p1455
(dp1456
g61
I0
sg62
F100
sg63
F100
sS'x'
F0
sS'y'
F0
sg64
F1
sg45
S'aeb95564-6530-11e2-a5e4-f0def14af2c8'
p1457
sbsg1404
(iclasses.keyframe
keyframe
p1458
(dp1459
g61
I-1
sg62
F100
sg63
F100
sS'x'
F0
sS'y'
F0
sg64
F1
sg45
S'aeb95866-6530-11e2-a5e4-f0def14af2c8'
p1460
sbssg1408
F2
sg1409
I00
sg1410
I00
sg1411
F1
sg1412
I01
sg1413
F2
sg1414
F44.18644882629107
sg1415
F167.5
sg1416
F4810.5
sg1417
I01
sg1418
F2
sg1419
F8.6419666666666668
sg810
I00
sg1420
g1421
sg1422
I00
sg1423
I00
sS'request_show_properties'
p1461
I00
sg1425
F2
sg1426
g1389
sg1427
I01
sg1428
F0
sg1429
(iclasses.files
OpenShotFile
p1462
(dp1463
g96
F258
sg97
S'MP3 (MPEG audio layer 3)'
p1464
sg98
I1
sg99
S'/home/mospina/thumbnail/5a9f1f14-652f-11e2-a5e4-f0def14af2c8_mp3_1.png'
p1465
sg36
S'/home/mospina/manuel/studio/plaga/capitulo_01/sound/020.mp3'
p1466
sg38
Nsg102
g1435
sg104
I44100
sg62
I0
sg105
g1
sg63
I0
sg106
F8.6419666666666668
sg107
F29.970029970029969
sg108
I1
sg109
S''
sg110
(F29.970029970029969
I0
tp1467
sg112
S''
sg45
S'5aa20472-652f-11e2-a5e4-f0def14af2c8'
p1468
sbsg1438
I00
sg1439
F100
sg1440
(lp1469
sg1442
F0
sg1443
I00
sg1444
S''
sg1445
S'020.mp3'
p1470
sg1447
g1421
sg1448
I01
sg1449
F3.9282845070422638
sg1450
S'aeb9505a-6530-11e2-a5e4-f0def14af2c8'
p1471
sba(iclasses.clip
clip
p1472
(dp1473
g1394
g1395
sg1396
I01
sg1397
I00
sg1398
(dp1474
g1400
(iclasses.keyframe
keyframe
p1475
(dp1476
g61
I0
sg62
F100
sg63
F100
sS'x'
F0
sS'y'
F0
sg64
F1
sg45
S'f01d19fa-6530-11e2-a5e4-f0def14af2c8'
p1477
sbsg1404
(iclasses.keyframe
keyframe
p1478
(dp1479
g61
I-1
sg62
F100
sg63
F100
sS'x'
F0
sS'y'
F0
sg64
F1
sg45
S'f01d2602-6530-11e2-a5e4-f0def14af2c8'
p1480
sbssg1408
F2
sg1409
I00
sg1410
I00
sg1411
F1
sg1412
I01
sg1413
F2
sg1414
F48.358415492957739
sg1415
F159.5
sg1416
F5502.5
sg1417
I01
sg1418
F2
sg1419
F3.6036000000000001
sg810
I00
sg1420
g1421
sg1422
I00
sg1423
I00
sg1461
I00
sg1425
F2
sg1426
g1389
sg1427
I01
sg1428
F0
sg1429
(iclasses.files
OpenShotFile
p1481
(dp1482
g96
F107
sg97
S'MP3 (MPEG audio layer 3)'
p1483
sg98
I1
sg99
S'/home/mospina/thumbnail/5aa2fcf6-652f-11e2-a5e4-f0def14af2c8_mp3_1.png'
p1484
sg36
S'/home/mospina/manuel/studio/plaga/capitulo_01/sound/030.mp3'
p1485
sg38
Nsg102
g1435
sg104
I44100
sg62
I0
sg105
g1
sg63
I0
sg106
F3.6036000000000001
sg107
F29.970029970029969
sg108
I1
sg109
S''
sg110
(F29.970029970029969
I0
tp1486
sg112
S''
sg45
S'5aa55424-652f-11e2-a5e4-f0def14af2c8'
p1487
sbsg1438
I00
sg1439
F100
sg1440
(lp1488
sg1442
F0
sg1443
I00
sg1444
S''
sg1445
S'030.mp3'
p1489
sg1447
g1421
sg1448
I01
sg1449
F3.6036000000000001
sg1450
S'f01d0fa0-6530-11e2-a5e4-f0def14af2c8'
p1490
sba(iclasses.clip
clip
p1491
(dp1492
S'color'
p1493
S'Gold'
p1494
sS'reversed'
p1495
I00
sS'video_fade_out'
p1496
I00
sS'keyframes'
p1497
(dp1498
S'start'
p1499
(iclasses.keyframe
keyframe
p1500
(dp1501
g61
I0
sg62
F100
sg63
F100
sS'x'
F0
sS'y'
F0
sg64
F1
sg45
S'a3eae45c-65f0-11e2-a5e4-f0def14af2c8'
p1502
sbsS'end'
p1503
(iclasses.keyframe
keyframe
p1504
(dp1505
g61
I-1
sg62
F100
sg63
F100
sS'x'
F0
sS'y'
F0
sg64
F1
sg45
S'a3eaec18-65f0-11e2-a5e4-f0def14af2c8'
p1506
sbssS'video_fade_out_amount'
p1507
F2
sS'audio_fade_out'
p1508
I00
sS'speed'
p1509
F1
sS'fill'
p1510
I01
sS'audio_fade_in_amount'
p1511
F2
sS'position_on_track'
p1512
F53.019542253521131
sg27
F0
sS'drag_x'
p1513
F0
sg39
I01
sS'audio_fade_out_amount'
p1514
F2
sS'max_length'
p1515
F3.6703333333333332
sS'valign'
p1516
S'centre'
p1517
sS'video_fade_in'
p1518
I00
sS'audio_fade_in'
p1519
I00
sS'video_fade_in_amount'
p1520
F2
sg38
g1389
sS'composite'
p1521
I01
sS'moved'
p1522
I00
sS'start_time'
p1523
F0
sS'file_object'
p1524
(iclasses.files
OpenShotFile
p1525
(dp1526
g96
F109
sg97
S'MP3 (MPEG audio layer 3)'
p1527
sg98
I1
sg99
S'/home/mospina/thumbnail/5aa662b0-652f-11e2-a5e4-f0def14af2c8_mp3_1.png'
p1528
sg36
S'/home/mospina/manuel/studio/plaga/capitulo_01/sound/031.mp3'
p1529
sg38
Nsg102
g1435
sg104
I44100
sg62
I0
sg105
g1
sg63
I0
sg106
F3.6703333333333332
sg107
F29.970029970029969
sg108
I1
sg109
S''
sg110
(F29.970029970029969
I0
tp1530
sg112
S''
sg45
S'5aa98fd0-652f-11e2-a5e4-f0def14af2c8'
p1531
sbsS'distort'
p1532
I00
sS'volume'
p1533
F100
sS'effects'
p1534
(lp1535
sS'rotation'
p1536
F0
sS'is_timeline_scrolling'
p1537
I00
sg99
S''
sg36
S'031.mp3'
p1538
sS'halign'
p1539
g1517
sg41
I01
sS'end_time'
p1540
F3.6703333333333332
sg45
S'a3ead962-65f0-11e2-a5e4-f0def14af2c8'
p1541
sba(iclasses.clip
clip
p1542
(dp1543
g1493
g1494
sg1495
I00
sg1496
I00
sg1497
(dp1544
g1499
(iclasses.keyframe
keyframe
p1545
(dp1546
g61
I0
sg62
F100
sg63
F100
sS'x'
F0
sS'y'
F0
sg64
F1
sg45
S'6613d480-65ec-11e2-a5e4-f0def14af2c8'
p1547
sbsg1503
(iclasses.keyframe
keyframe
p1548
(dp1549
g61
I-1
sg62
F100
sg63
F100
sS'x'
F0
sS'y'
F0
sg64
F1
sg45
S'6613d7c8-65ec-11e2-a5e4-f0def14af2c8'
p1550
sbssg1507
F2
sg1508
I00
sg1509
F1
sg1510
I01
sg1511
F2
sg1512
F66.026333333333326
sg27
F39.5
sg1513
F670.86666666666679
sg39
I01
sg1514
F2
sg1515
F3.7704333333333335
sg832
I00
sg1516
g1517
sg1518
I00
sg1519
I00
sg1424
I00
sg1520
F2
sg38
g1389
sg1521
I01
sg1522
I01
sg1523
F0
sg1524
(iclasses.files
OpenShotFile
p1551
(dp1552
g96
F112
sg97
S'MP3 (MPEG audio layer 3)'
p1553
sg98
I1
sg99
S'/home/mospina/thumbnail/5aaa8d86-652f-11e2-a5e4-f0def14af2c8_mp3_1.png'
p1554
sg36
S'/home/mospina/manuel/studio/plaga/capitulo_01/sound/040.mp3'
p1555
sg38
Nsg102
g1435
sg104
I44100
sg62
I0
sg105
g1
sg63
I0
sg106
F3.7704333333333335
sg107
F29.970029970029969
sg108
I1
sg109
S''
sg110
(F29.970029970029969
I0
tp1556
sg112
S''
sg45
S'5aacfc24-652f-11e2-a5e4-f0def14af2c8'
p1557
sbsg1532
I00
sg1533
F100
sg1534
(lp1558
sg1536
F0
sg1537
I00
sg99
S''
sg36
S'040.mp3'
p1559
sg1539
g1517
sg41
I01
sg1540
F3.7704333333333335
sg45
S'6613cea4-65ec-11e2-a5e4-f0def14af2c8'
p1560
sba(iclasses.clip
clip
p1561
(dp1562
g1493
g1494
sg1495
I00
sg1496
I00
sg1497
(dp1563
g1499
(iclasses.keyframe
keyframe
p1564
(dp1565
g61
I0
sg62
F100
sg63
F100
sS'x'
F0
sS'y'
F0
sg64
F1
sg45
S'77e95932-65ec-11e2-a5e4-f0def14af2c8'
p1566
sbsg1503
(iclasses.keyframe
keyframe
p1567
(dp1568
g61
I-1
sg62
F100
sg63
F100
sS'x'
F0
sS'y'
F0
sg64
F1
sg45
S'77e960c6-65ec-11e2-a5e4-f0def14af2c8'
p1569
sbssg1507
F2
sg1508
I00
sg1509
F1
sg1510
I01
sg1511
F2
sg1512
F70.206766666666667
sg27
F36.5
sg1513
F552.82333333333372
sg39
I01
sg1514
F2
sg1515
F1.7684333333333333
sg832
I00
sg1516
g1517
sg1518
I00
sg1519
I00
sg1424
I00
sg1520
F2
sg38
g1389
sg1521
I01
sg1522
I01
sg1523
F0
sg1524
(iclasses.files
OpenShotFile
p1570
(dp1571
g96
F52
sg97
S'MP3 (MPEG audio layer 3)'
p1572
sg98
I1
sg99
S'/home/mospina/thumbnail/5aae23b0-652f-11e2-a5e4-f0def14af2c8_mp3_1.png'
p1573
sg36
S'/home/mospina/manuel/studio/plaga/capitulo_01/sound/041.mp3'
p1574
sg38
Nsg102
g1435
sg104
I44100
sg62
I0
sg105
g1
sg63
I0
sg106
F1.7684333333333333
sg107
F29.970029970029969
sg108
I1
sg109
S''
sg110
(F29.970029970029969
I0
tp1575
sg112
S''
sg45
S'5aafce90-652f-11e2-a5e4-f0def14af2c8'
p1576
sbsg1532
I00
sg1533
F100
sg1534
(lp1577
sg1536
F0
sg1537
I00
sg99
S''
sg36
S'041.mp3'
p1578
sg1539
g1517
sg41
I01
sg1540
F1.7684333333333333
sg45
S'77e94f1e-65ec-11e2-a5e4-f0def14af2c8'
p1579
sba(iclasses.clip
clip
p1580
(dp1581
g1493
g1494
sg1495
I00
sg1496
I00
sg1497
(dp1582
g1499
(iclasses.keyframe
keyframe
p1583
(dp1584
g61
I0
sg62
F100
sg63
F100
sS'x'
F0
sS'y'
F0
sg64
F1
sg45
S'a1ed1f48-65ec-11e2-a5e4-f0def14af2c8'
p1585
sbsg1503
(iclasses.keyframe
keyframe
p1586
(dp1587
g61
I-1
sg62
F100
sg63
F100
sS'x'
F0
sS'y'
F0
sg64
F1
sg45
S'a1ed26e6-65ec-11e2-a5e4-f0def14af2c8'
p1588
sbssg1507
F2
sg1508
I00
sg1509
F1
sg1510
I01
sg1511
F2
sg1512
F72.332033333333342
sg27
F0
sg1513
F0
sg39
I01
sg1514
F2
sg1515
F3.5702333333333334
sg1516
g1517
sg1518
I00
sg1519
I00
sg1520
F2
sg38
g1389
sg1521
I01
sg1522
I00
sg1523
F0
sg1524
(iclasses.files
OpenShotFile
p1589
(dp1590
g96
F106
sg97
S'MP3 (MPEG audio layer 3)'
p1591
sg98
I1
sg99
S'/home/mospina/thumbnail/5abe13ba-652f-11e2-a5e4-f0def14af2c8_mp3_1.png'
p1592
sg36
S'/home/mospina/manuel/studio/plaga/capitulo_01/sound/060.mp3'
p1593
sg38
Nsg102
g1435
sg104
I44100
sg62
I0
sg105
g1
sg63
I0
sg106
F3.5702333333333334
sg107
F29.970029970029969
sg108
I1
sg109
S''
sg110
(F29.970029970029969
I0
tp1594
sg112
S''
sg45
S'5ac07c4a-652f-11e2-a5e4-f0def14af2c8'
p1595
sbsg1532
I00
sg1533
F100
sg1534
(lp1596
sg1536
F0
sg1537
I00
sg99
S''
sg36
S'060.mp3'
p1597
sg1539
g1517
sg41
I01
sg1540
F3.5702333333333334
sg45
S'a1ed14da-65ec-11e2-a5e4-f0def14af2c8'
p1598
sbasg36
S'Track 1'
p1599
sg38
g20
sg39
I01
sg40
I136
sg41
I01
sg42
I195
sS'x'
I10
sg43
(lp1600
sg45
S'd9954ce6-5fb0-11e2-8e6d-f0def14af2c8'
p1601
sbasS'markers'
p1602
(lp1603
sS'project'
p1604
g1
sS'length'
p1605
F600
sS'ruler_time'
p1606
Nsg1513
F5209.8800000000001
sS'play_head_line'
p1607
NsbasS'refresh_xml'
p1608
I00
sS'project_type'
p1609
S'DV/DVD NTSC'
p1610
sS'sequences'
p1611
(lp1612
g20
asS'DEBUG'
p1613
I01
sS'UI_DIR'
p1614
S'/usr/lib/python2.7/site-packages/openshot/windows/ui'
p1615
sS'PROFILES_DIR'
p1616
S'/usr/lib/python2.7/site-packages/openshot/profiles'
p1617
sS'BASE_DIR'
p1618
S'/usr/lib/python2.7/site-packages'
p1619
sS'canvas'
p1620
NsS'EXPORT_PRESETS_DIR'
p1621
S'/usr/lib/python2.7/site-packages/openshot/export_presets'
p1622
sS'USER_TRANSITIONS_DIR'
p1623
S'/home/mospina/.openshot/user_transitions'
p1624
sS'EFFECTS_DIR'
p1625
S'/usr/lib/python2.7/site-packages/openshot/effects'
p1626
sS'BLENDER_DIR'
p1627
S'/usr/lib/python2.7/site-packages/openshot/blender'
p1628
sS'thumbnailer'
p1629
Nsg24
S'Animatic'
p1630
sS'file_type'
p1631
S'ascii'
p1632
sS'theme'
p1633
Vfresher
p1634
sS'project_folder'
p1635
(iclasses.files
OpenShotFolder
p1636
(dp1637
S'queue'
p1638
(lp1639
sg24
S''
sg90
NsS'items'
p1640
(lp1641
g94
ag164
ag183
ag202
ag221
ag240
ag259
ag278
ag297
ag316
ag335
ag354
ag373
ag392
ag411
ag430
ag449
ag468
ag487
ag506
ag525
ag544
ag563
ag582
ag601
ag620
ag639
ag658
ag677
ag696
ag715
ag734
ag753
ag772
ag791
ag812
ag834
ag855
ag874
ag893
ag912
ag962
ag996
ag1015
ag1034
ag1053
ag1072
ag1091
ag1110
ag1129
ag1148
ag1167
ag1186
ag1205
ag1224
ag1243
ag1262
ag1281
ag1300
ag1319
ag1338
ag1357
ag1376
ag143
ag1430
ag1462
ag1481
ag1525
ag1551
ag1570
a(iclasses.files
OpenShotFile
p1642
(dp1643
g96
F59
sg97
S'MP3 (MPEG audio layer 3)'
p1644
sg98
I1
sg99
S'/home/mospina/thumbnail/5ab0ec26-652f-11e2-a5e4-f0def14af2c8_mp3_1.png'
p1645
sg36
S'/home/mospina/manuel/studio/plaga/capitulo_01/sound/042.mp3'
p1646
sg38
Nsg102
g1435
sg104
I44100
sg62
I0
sg105
g1
sg63
I0
sg106
F2.0020000000000002
sg107
F29.970029970029969
sg108
I1
sg109
S''
sg110
(F29.970029970029969
I0
tp1647
sg112
S''
sg45
S'5ab287a2-652f-11e2-a5e4-f0def14af2c8'
p1648
sba(iclasses.files
OpenShotFile
p1649
(dp1650
g96
F90
sg97
S'MP3 (MPEG audio layer 3)'
p1651
sg98
I1
sg99
S'/home/mospina/thumbnail/5ab42c38-652f-11e2-a5e4-f0def14af2c8_mp3_1.png'
p1652
sg36
S'/home/mospina/manuel/studio/plaga/capitulo_01/sound/050.mp3'
p1653
sg38
Nsg102
g1435
sg104
I44100
sg62
I0
sg105
g1
sg63
I0
sg106
F3.0363666666666669
sg107
F29.970029970029969
sg108
I1
sg109
S''
sg110
(F29.970029970029969
I0
tp1654
sg112
S''
sg45
S'5ab671fa-652f-11e2-a5e4-f0def14af2c8'
p1655
sba(iclasses.files
OpenShotFile
p1656
(dp1657
g96
F108
sg97
S'MP3 (MPEG audio layer 3)'
p1658
sg98
I1
sg99
S'/home/mospina/thumbnail/5ab77654-652f-11e2-a5e4-f0def14af2c8_mp3_1.png'
p1659
sg36
S'/home/mospina/manuel/studio/plaga/capitulo_01/sound/051.mp3'
p1660
sg38
Nsg102
g1435
sg104
I44100
sg62
I0
sg105
g1
sg63
I0
sg106
F3.6369666666666669
sg107
F29.970029970029969
sg108
I1
sg109
S''
sg110
(F29.970029970029969
I0
tp1661
sg112
S''
sg45
S'5aba1454-652f-11e2-a5e4-f0def14af2c8'
p1662
sba(iclasses.files
OpenShotFile
p1663
(dp1664
g96
F77
sg97
S'MP3 (MPEG audio layer 3)'
p1665
sg98
I1
sg99
S'/home/mospina/thumbnail/5abb0666-652f-11e2-a5e4-f0def14af2c8_mp3_1.png'
p1666
sg36
S'/home/mospina/manuel/studio/plaga/capitulo_01/sound/052.mp3'
p1667
sg38
Nsg102
g1435
sg104
I44100
sg62
I0
sg105
g1
sg63
I0
sg106
F2.6026000000000002
sg107
F29.970029970029969
sg108
I1
sg109
S''
sg110
(F29.970029970029969
I0
tp1668
sg112
S''
sg45
S'5abd051a-652f-11e2-a5e4-f0def14af2c8'
p1669
sbag1589
asS'label'
p1670
S''
sg1604
g1
sS'location'
p1671
S''
sg130
S'd99528e2-5fb0-11e2-8e6d-f0def14af2c8'
p1672
sbsS'form'
p1673
NsS'folder'
p1674
S'/home/mospina'
p1675
sS'USER_PROFILES_DIR'
p1676
S'/home/mospina/.openshot/user_profiles'
p1677
sb.